
mb_bench.o:     file format elf32-powerpc

Disassembly of section .text:

00000000 <process_low_prio_input>:

// Process all low priority input packets
//
process_low_prio_input()
{
   0:	94 21 ff e0 	stwu	r1,-32(r1)
   4:	7c 08 02 a6 	mflr	r0
   8:	93 41 00 08 	stw	r26,8(r1)
   c:	93 61 00 0c 	stw	r27,12(r1)
  10:	93 81 00 10 	stw	r28,16(r1)
  14:	93 a1 00 14 	stw	r29,20(r1)
  18:	93 c1 00 18 	stw	r30,24(r1)
  1c:	93 e1 00 1c 	stw	r31,28(r1)
  20:	90 01 00 24 	stw	r0,36(r1)
    while (!(cur_rx_desc->flags & RX_DESC_FLAG_EMPTY)) {
  24:	3d 20 00 00 	lis	r9,0
  28:	81 29 00 00 	lwz	r9,0(r9)
  2c:	a0 09 00 00 	lhz	r0,0(r9)
  30:	70 09 80 00 	andi.	r9,r0,32768
  34:	40 82 00 94 	bne	c8 <process_low_prio_input+0xc8>
  38:	3f e0 00 00 	lis	r31,0
  3c:	3f 40 00 00 	lis	r26,0
  40:	3f 60 00 00 	lis	r27,0
  44:	3f 80 00 00 	lis	r28,0
  48:	3f a0 00 00 	lis	r29,0
  4c:	3f c0 00 00 	lis	r30,0
        // Check for packet error (TBD)

        // Process the IP packet
        process_ip_pkt(cur_rx_desc->buf_addr);
  50:	81 3f 00 00 	lwz	r9,0(r31)
  54:	80 69 00 04 	lwz	r3,4(r9)
  58:	4c c6 31 82 	crclr	4*cr1+eq
  5c:	48 00 00 01 	bl	5c <process_low_prio_input+0x5c>

        // Update receive descriptor
        cur_rx_desc->flags &= ~RX_DESC_FLAG_EMPTY;
  60:	81 3f 00 00 	lwz	r9,0(r31)
  64:	a0 09 00 00 	lhz	r0,0(r9)
  68:	54 00 04 7e 	clrlwi	r0,r0,17
  6c:	b0 09 00 00 	sth	r0,0(r9)
        cur_rx_desc->buf_addr = free_buf_addr;
  70:	80 1a 00 00 	lwz	r0,0(r26)
  74:	90 09 00 04 	stw	r0,4(r9)

        // Update receive descriptor pointer
        if (++cur_rx_desc > (rx_desc_t*)rx_desc_end) {
  78:	39 29 00 08 	addi	r9,r9,8
  7c:	91 3f 00 00 	stw	r9,0(r31)
  80:	80 1b 00 00 	lwz	r0,0(r27)
  84:	7c 09 00 40 	cmplw	r9,r0
  88:	40 81 00 0c 	ble	94 <process_low_prio_input+0x94>
            cur_rx_desc = (rx_desc_t*)rx_desc_start;
  8c:	80 1c 00 00 	lwz	r0,0(r28)
  90:	90 1f 00 00 	stw	r0,0(r31)
        }

        // Update free buffer address
        free_buf_addr += IP_BUF_SIZE;
  94:	3d 60 00 00 	lis	r11,0
  98:	81 2b 00 00 	lwz	r9,0(r11)
  9c:	39 29 06 04 	addi	r9,r9,1540
  a0:	91 2b 00 00 	stw	r9,0(r11)
        if (free_buf_addr >= buf_end_addr) {
  a4:	80 1d 00 00 	lwz	r0,0(r29)
  a8:	7c 09 00 40 	cmplw	r9,r0
  ac:	41 80 00 0c 	blt	b8 <process_low_prio_input+0xb8>
            free_buf_addr = buf_start_addr;
  b0:	80 1e 00 00 	lwz	r0,0(r30)
  b4:	90 0b 00 00 	stw	r0,0(r11)
        }
    }
  b8:	81 3f 00 00 	lwz	r9,0(r31)
  bc:	a0 09 00 00 	lhz	r0,0(r9)
  c0:	70 09 80 00 	andi.	r9,r0,32768
  c4:	41 82 ff 8c 	beq	50 <process_low_prio_input+0x50>
}
  c8:	80 01 00 24 	lwz	r0,36(r1)
  cc:	7c 08 03 a6 	mtlr	r0
  d0:	83 41 00 08 	lwz	r26,8(r1)
  d4:	83 61 00 0c 	lwz	r27,12(r1)
  d8:	83 81 00 10 	lwz	r28,16(r1)
  dc:	83 a1 00 14 	lwz	r29,20(r1)
  e0:	83 c1 00 18 	lwz	r30,24(r1)
  e4:	83 e1 00 1c 	lwz	r31,28(r1)
  e8:	38 21 00 20 	addi	r1,r1,32
  ec:	4e 80 00 20 	blr

000000f0 <process_ip_pkt>:


// This routine is used to process all IP packets recevied in the packet buffer.
// The following IP packets are expected:
//   DEPI-PSP (L2TP over UDP)
//   DEPI-MPT (L2TP over UDP)
//   Cisco bonding packet (over UDP)
//
// We assume that the payload type can be determined by examining the bits
// on the destination UDP port:
//   UDP port map: 00000SSSSCQQQQQQ
//   S: Slot bits
//   C: Cisco bonding (1)
//   Q: QAM bits
//
process_ip_pkt(uint8* buf)
{
  f0:	94 21 ff f0 	stwu	r1,-16(r1)
  f4:	7c 08 02 a6 	mflr	r0
  f8:	90 01 00 14 	stw	r0,20(r1)
    ip_hdr_t* ip_hdr = (ip_hdr_t*)buf;
    udp_hdr_t* udp_hdr = (udp_hdr_t*)ip_hdr->payload;
  fc:	39 43 00 14 	addi	r10,r3,20
    int qam_id = udp_hdr->dst_port & UDP_PORT_MASK_QAM_ID;
 100:	a1 6a 00 02 	lhz	r11,2(r10)
 104:	55 65 06 be 	clrlwi	r5,r11,26
    qam_info_t* qam_info = &qam_info_array[qam_id];
 108:	54 a0 10 3a 	rlwinm	r0,r5,2,0,29
 10c:	3d 20 00 00 	lis	r9,0
 110:	39 29 00 00 	addi	r9,r9,0
 114:	7d 00 4a 14 	add	r8,r0,r9
    flow_info_t* flow_info;
    l2tp_hdr_t* l2tp_hdr;
    int flow_id;
    int num_tp;

    // Determine payload type
    if (udp_hdr->dst_port & UDP_PORT_MASK_CISCO_BONDING) {
 118:	71 60 00 40 	andi.	r0,r11,64
 11c:	41 82 00 44 	beq	160 <process_ip_pkt+0x70>
        // Cisco bonding
        flow_id = qam_id * NUM_FLOW_PER_QAM;
 120:	54 a9 18 38 	rlwinm	r9,r5,3,0,28
        flow_info = &flow_info_array[flow_id];
 124:	54 a5 28 34 	rlwinm	r5,r5,5,0,26
 128:	7c a5 4a 14 	add	r5,r5,r9
 12c:	54 a5 10 3a 	rlwinm	r5,r5,2,0,29
 130:	3d 20 00 00 	lis	r9,0
 134:	39 29 00 00 	addi	r9,r9,0
        num_tp = udp_hdr->length / TP_SIZE;
 138:	a0 8a 00 04 	lhz	r4,4(r10)
 13c:	3c 00 ae 4c 	lis	r0,-20916
 140:	60 00 41 5d 	ori	r0,r0,16733
 144:	7c 84 00 16 	mulhwu	r4,r4,r0
        process_mpt_payload((uint32)udp_hdr->payload, num_tp, flow_info);
 148:	38 63 00 1c 	addi	r3,r3,28
 14c:	54 84 cc 3e 	rlwinm	r4,r4,25,16,31
 150:	7c a5 4a 14 	add	r5,r5,r9
 154:	4c c6 31 82 	crclr	4*cr1+eq
 158:	48 00 00 01 	bl	158 <process_ip_pkt+0x68>

    } else {
 15c:	48 00 00 74 	b	1d0 <process_ip_pkt+0xe0>
        // DEPI
        l2tp_hdr = (l2tp_hdr_t*)udp_hdr->payload;
 160:	38 6a 00 08 	addi	r3,r10,8
        flow_id = qam_id * NUM_FLOW_PER_QAM + l2tp_hdr->flow_id;
 164:	54 a9 18 38 	rlwinm	r9,r5,3,0,28
 168:	88 03 00 08 	lbz	r0,8(r3)
 16c:	54 00 07 7e 	clrlwi	r0,r0,29
 170:	7d 29 02 14 	add	r9,r9,r0
        flow_info = &flow_info_array[flow_id];
 174:	55 20 10 3a 	rlwinm	r0,r9,2,0,29
 178:	7c 00 4a 14 	add	r0,r0,r9
 17c:	54 00 10 3a 	rlwinm	r0,r0,2,0,29
 180:	3d 20 00 00 	lis	r9,0
 184:	39 29 00 00 	addi	r9,r9,0
 188:	7c a0 4a 14 	add	r5,r0,r9

        // Check for lost packet
        if (l2tp_hdr->seq_no != flow_info->prev_seq_no + 1) {
 18c:	a0 03 00 0a 	lhz	r0,10(r3)
            // Sequence number error
        }
        flow_info->prev_seq_no = l2tp_hdr->seq_no;
 190:	b0 05 00 10 	sth	r0,16(r5)

        if (qam_info->mode == QAM_MODE_DEPI_PSP) {
 194:	80 08 00 00 	lwz	r0,0(r8)
 198:	2c 00 00 02 	cmpwi	r0,2
 19c:	40 82 00 14 	bne	1b0 <process_ip_pkt+0xc0>
            process_psp_payload(l2tp_hdr, flow_info);
 1a0:	7c a4 2b 78 	mr	r4,r5
 1a4:	4c c6 31 82 	crclr	4*cr1+eq
 1a8:	48 00 00 01 	bl	1a8 <process_ip_pkt+0xb8>
        } else {
 1ac:	48 00 00 24 	b	1d0 <process_ip_pkt+0xe0>
            num_tp = udp_hdr->length / TP_SIZE;
 1b0:	a0 8a 00 04 	lhz	r4,4(r10)
 1b4:	3c 00 ae 4c 	lis	r0,-20916
 1b8:	60 00 41 5d 	ori	r0,r0,16733
 1bc:	7c 84 00 16 	mulhwu	r4,r4,r0
            process_mpt_payload((uint32)l2tp_hdr->seg_table, num_tp, flow_info);
 1c0:	38 63 00 0c 	addi	r3,r3,12
 1c4:	54 84 cc 3e 	rlwinm	r4,r4,25,16,31
 1c8:	4c c6 31 82 	crclr	4*cr1+eq
 1cc:	48 00 00 01 	bl	1cc <process_ip_pkt+0xdc>
        }
    }
}
 1d0:	80 01 00 14 	lwz	r0,20(r1)
 1d4:	7c 08 03 a6 	mtlr	r0
 1d8:	38 21 00 10 	addi	r1,r1,16
 1dc:	4e 80 00 20 	blr

000001e0 <process_psp_payload>:


// Process a DEMP PSP packet
//
process_psp_payload(l2tp_hdr_t* ptr, flow_info_t* flow_info)
{
 1e0:	94 21 ff f0 	stwu	r1,-16(r1)
 1e4:	93 e1 00 0c 	stw	r31,12(r1)
    psp_out_cmd_t* out_cmd = (psp_out_cmd_t*)flow_info->out_cmd_cur_ptr;
 1e8:	81 44 00 0c 	lwz	r10,12(r4)
    uint16* seg_info = ptr->seg_table;
 1ec:	39 03 00 0c 	addi	r8,r3,12
    uint32 buf_addr;
    int seg_cnt = 0;
 1f0:	39 80 00 00 	li	r12,0
    int tot_seg_len = 0;
    int incomplete_frame;
    int i, j;

    // Scan segment table to determine number of segments and starting address
    do {
        seg_cnt++;
 1f4:	39 8c 00 01 	addi	r12,r12,1
    } while ( (*seg_info++) & PSP_SEG_C_BIT );
 1f8:	a0 08 00 00 	lhz	r0,0(r8)
 1fc:	39 08 00 02 	addi	r8,r8,2
 200:	70 09 80 00 	andi.	r9,r0,32768
 204:	40 82 ff f0 	bne	1f4 <process_psp_payload+0x14>

    buf_addr = (uint32)seg_info;
 208:	7d 06 43 78 	mr	r6,r8
    incomplete_frame = !((*--seg_info) & PSP_SEG_E_BIT);
 20c:	a0 08 ff fe 	lhz	r0,-2(r8)
 210:	68 00 20 00 	xori	r0,r0,8192
                                  // end bit of last segment

    if (incomplete_frame) {
 214:	54 1f 9f ff 	rlwinm.	r31,r0,19,31,31
 218:	7c 00 00 26 	mfcr	r0
 21c:	54 00 1f fe 	rlwinm	r0,r0,3,31,31
 220:	7c 00 00 d0 	neg	r0,r0
        seg_cnt--;
 224:	39 2c ff ff 	addi	r9,r12,-1
 228:	7d 8b 00 38 	and	r11,r12,r0
 22c:	7d 20 00 78 	andc	r0,r9,r0
 230:	7d 6c 03 78 	or	r12,r11,r0
    }

    seg_info = ptr->seg_table;    // rewind segment table pointer
 234:	39 03 00 0c 	addi	r8,r3,12

    // Process all the completed frames within the PSP packet
    for (i=j=0; i<seg_cnt; i++) {
 238:	38 e0 00 00 	li	r7,0
 23c:	38 a0 00 00 	li	r5,0
 240:	7c 05 60 00 	cmpw	r5,r12
 244:	40 80 00 80 	bge	2c4 <process_psp_payload+0xe4>
 248:	38 60 00 00 	li	r3,0
        if (j == 0) {
 24c:	2c 07 00 00 	cmpwi	r7,0
 250:	40 82 00 28 	bne	278 <process_psp_payload+0x98>
            if (++out_cmd >= (psp_out_cmd_t*)flow_info->out_cmd_buf_end_addr) {
 254:	39 4a 00 0c 	addi	r10,r10,12
 258:	80 04 00 04 	lwz	r0,4(r4)
 25c:	7c 0a 00 40 	cmplw	r10,r0
 260:	41 80 00 08 	blt	268 <process_psp_payload+0x88>
                out_cmd = (psp_out_cmd_t*)flow_info->out_cmd_buf_start_addr;
 264:	81 44 00 00 	lwz	r10,0(r4)
            }
            out_cmd->buf_addr = buf_addr;
 268:	90 ca 00 00 	stw	r6,0(r10)
            out_cmd->seg_info[1] = 0;
 26c:	b0 6a 00 06 	sth	r3,6(r10)
            out_cmd->seg_info[2] = 0;
 270:	b0 6a 00 08 	sth	r3,8(r10)
            out_cmd->seg_info[3] = 0;
 274:	b0 6a 00 0a 	sth	r3,10(r10)
        }

        out_cmd->seg_info[j] = *seg_info | PSP_SEG_C_BIT;
 278:	7d 67 3a 14 	add	r11,r7,r7
 27c:	39 2a 00 04 	addi	r9,r10,4
 280:	a0 08 00 00 	lhz	r0,0(r8)
 284:	60 00 80 00 	ori	r0,r0,32768
 288:	7c 09 5b 2e 	sthx	r0,r9,r11

        buf_addr += *seg_info & PSP_SEG_SIZE;
 28c:	a0 08 00 00 	lhz	r0,0(r8)
 290:	54 00 04 fe 	clrlwi	r0,r0,19
 294:	7c c6 02 14 	add	r6,r6,r0
        seg_info++;
 298:	39 08 00 02 	addi	r8,r8,2

        if (++j == 4) {
 29c:	38 e7 00 01 	addi	r7,r7,1
 2a0:	68 e0 00 04 	xori	r0,r7,4
 2a4:	7c 09 fe 70 	srawi	r9,r0,31
 2a8:	7d 20 02 78 	xor	r0,r9,r0
 2ac:	7c 00 48 50 	subf	r0,r0,r9
 2b0:	7c 00 fe 70 	srawi	r0,r0,31
 2b4:	7c 07 38 38 	and	r7,r0,r7
 2b8:	38 a5 00 01 	addi	r5,r5,1
 2bc:	7c 05 60 00 	cmpw	r5,r12
 2c0:	41 80 ff 8c 	blt	24c <process_psp_payload+0x6c>
            j = 0;
        }
    }
    if (seg_cnt > 0) {
 2c4:	2c 0c 00 00 	cmpwi	r12,0
 2c8:	40 81 00 08 	ble	2d0 <process_psp_payload+0xf0>
        flow_info->out_cmd_wr_ptr = (uint32)out_cmd;
 2cc:	91 44 00 08 	stw	r10,8(r4)
    }

    // Put the remaining incompleted segment, if there is any,
    // in another out command
    if (incomplete_frame) {
 2d0:	2c 1f 00 00 	cmpwi	r31,0
 2d4:	41 82 00 38 	beq	30c <process_psp_payload+0x12c>
        if (++out_cmd >= (psp_out_cmd_t*)flow_info->out_cmd_buf_end_addr) {
 2d8:	39 4a 00 0c 	addi	r10,r10,12
 2dc:	80 04 00 04 	lwz	r0,4(r4)
 2e0:	7c 0a 00 40 	cmplw	r10,r0
 2e4:	41 80 00 08 	blt	2ec <process_psp_payload+0x10c>
            out_cmd = (psp_out_cmd_t*)flow_info->out_cmd_buf_start_addr;
 2e8:	81 44 00 00 	lwz	r10,0(r4)
        }
        out_cmd->buf_addr = buf_addr;
 2ec:	90 ca 00 00 	stw	r6,0(r10)
        out_cmd->seg_info[0] = *seg_info | PSP_SEG_C_BIT;
 2f0:	a0 08 00 00 	lhz	r0,0(r8)
 2f4:	60 00 80 00 	ori	r0,r0,32768
 2f8:	b0 0a 00 04 	sth	r0,4(r10)
        out_cmd->seg_info[1] = 0;
 2fc:	38 00 00 00 	li	r0,0
 300:	b0 0a 00 06 	sth	r0,6(r10)
        out_cmd->seg_info[2] = 0;
 304:	b0 0a 00 08 	sth	r0,8(r10)
        out_cmd->seg_info[3] = 0;
 308:	b0 0a 00 0a 	sth	r0,10(r10)
    }
    flow_info->out_cmd_cur_ptr = (uint32)out_cmd;
 30c:	91 44 00 0c 	stw	r10,12(r4)
}
 310:	83 e1 00 0c 	lwz	r31,12(r1)
 314:	38 21 00 10 	addi	r1,r1,16
 318:	4e 80 00 20 	blr

0000031c <process_mpt_payload>:


// Process a DEMP MPT packet or a Cisco bonding packet
//
process_mpt_payload(uint32 buf, uint32 num_tp, flow_info_t* flow_info)
{
    mpt_out_cmd_t* out_cmd = (mpt_out_cmd_t*)flow_info->out_cmd_cur_ptr;
 31c:	81 25 00 0c 	lwz	r9,12(r5)
    out_cmd->buf_addr = buf;
 320:	90 69 00 00 	stw	r3,0(r9)
    out_cmd->num_tp = num_tp;
 324:	90 89 00 04 	stw	r4,4(r9)
}
 328:	4e 80 00 20 	blr
