
pbsim:     file format elf32-powerpc

Disassembly of section .text:

48040538 <__do_global_dtors_aux>:
48040538:	94 21 ff f0 	stwu	r1,-16(r1)
4804053c:	7c 08 02 a6 	mflr	r0
48040540:	93 c1 00 08 	stw	r30,8(r1)
48040544:	93 e1 00 0c 	stw	r31,12(r1)
48040548:	90 01 00 14 	stw	r0,20(r1)
4804054c:	48 00 3e 6d 	bl	480443b8 <__DTOR_END__+0xc>
48040550:	7f c8 02 a6 	mflr	r30
48040554:	81 7e 00 08 	lwz	r11,8(r30)
48040558:	81 2b 00 00 	lwz	r9,0(r11)
4804055c:	80 09 00 00 	lwz	r0,0(r9)
48040560:	2c 00 00 00 	cmpwi	r0,0
48040564:	41 82 00 30 	beq	48040594 <__do_global_dtors_aux+0x5c>
48040568:	7d 7f 5b 78 	mr	r31,r11
4804056c:	81 3f 00 00 	lwz	r9,0(r31)
48040570:	39 29 00 04 	addi	r9,r9,4
48040574:	91 3f 00 00 	stw	r9,0(r31)
48040578:	80 09 ff fc 	lwz	r0,-4(r9)
4804057c:	7c 08 03 a6 	mtlr	r0
48040580:	4e 80 00 21 	blrl
48040584:	81 3f 00 00 	lwz	r9,0(r31)
48040588:	80 09 00 00 	lwz	r0,0(r9)
4804058c:	2c 00 00 00 	cmpwi	r0,0
48040590:	40 82 ff dc 	bne	4804056c <__do_global_dtors_aux+0x34>
48040594:	80 01 00 14 	lwz	r0,20(r1)
48040598:	7c 08 03 a6 	mtlr	r0
4804059c:	83 c1 00 08 	lwz	r30,8(r1)
480405a0:	83 e1 00 0c 	lwz	r31,12(r1)
480405a4:	38 21 00 10 	addi	r1,r1,16
480405a8:	4e 80 00 20 	blr

480405ac <fini_dummy>:
480405ac:	94 21 ff f0 	stwu	r1,-16(r1)
480405b0:	7c 08 02 a6 	mflr	r0
480405b4:	90 01 00 14 	stw	r0,20(r1)
480405b8:	80 01 00 14 	lwz	r0,20(r1)
480405bc:	7c 08 03 a6 	mtlr	r0
480405c0:	38 21 00 10 	addi	r1,r1,16
480405c4:	4e 80 00 20 	blr

480405c8 <_start>:
480405c8:	3d a0 48 05 	lis	r13,18437
480405cc:	39 ad c3 d0 	addi	r13,r13,-15408
480405d0:	3c 40 48 05 	lis	r2,18437
480405d4:	38 42 b2 f8 	addi	r2,r2,-19720
480405d8:	94 21 ff d0 	stwu	r1,-48(r1)
480405dc:	90 61 00 10 	stw	r3,16(r1)
480405e0:	90 81 00 14 	stw	r4,20(r1)
480405e4:	90 a1 00 18 	stw	r5,24(r1)
480405e8:	90 c1 00 1c 	stw	r6,28(r1)
480405ec:	90 e1 00 20 	stw	r7,32(r1)
480405f0:	91 01 00 24 	stw	r8,36(r1)
480405f4:	48 00 3e ed 	bl	480444e0 <errno+0x84>
480405f8:	3c 60 48 04 	lis	r3,18436
480405fc:	38 63 2a b4 	addi	r3,r3,10932
48040600:	7c 68 03 a6 	mtlr	r3
48040604:	4e 80 00 21 	blrl
48040608:	3c 60 48 04 	lis	r3,18436
4804060c:	38 63 2a d4 	addi	r3,r3,10964
48040610:	48 00 3e f9 	bl	48044508 <errno+0xac>
48040614:	80 61 00 10 	lwz	r3,16(r1)
48040618:	80 81 00 14 	lwz	r4,20(r1)
4804061c:	80 a1 00 18 	lwz	r5,24(r1)
48040620:	80 c1 00 1c 	lwz	r6,28(r1)
48040624:	38 21 00 30 	addi	r1,r1,48
48040628:	39 40 00 00 	li	r10,0
4804062c:	3d 20 48 04 	lis	r9,18436
48040630:	91 49 44 5c 	stw	r10,17500(r9)
48040634:	3d 20 48 04 	lis	r9,18436
48040638:	39 29 45 10 	addi	r9,r9,17680
4804063c:	7d 28 03 a6 	mtlr	r9
48040640:	48 00 0f cc 	b	4804160c <main>

48040644 <data_hint>:
48040644:	7c 00 1a 2c 	dcbt	r0,r3
48040648:	4e 80 00 20 	blr

4804064c <clockRecovery>:
4804064c:	90 a4 00 0c 	stw	r5,12(r4)
48040650:	90 a3 00 34 	stw	r5,52(r3)
48040654:	4e 80 00 20 	blr

48040658 <findOutTime>:
48040658:	80 03 00 34 	lwz	r0,52(r3)
4804065c:	81 23 00 30 	lwz	r9,48(r3)
48040660:	7c 00 4a 14 	add	r0,r0,r9
48040664:	90 04 00 0c 	stw	r0,12(r4)
48040668:	90 03 00 34 	stw	r0,52(r3)
4804066c:	4e 80 00 20 	blr

48040670 <init>:
48040670:	94 21 ff c0 	stwu	r1,-64(r1)
48040674:	7c 08 02 a6 	mflr	r0
48040678:	92 a1 00 14 	stw	r21,20(r1)
4804067c:	92 c1 00 18 	stw	r22,24(r1)
48040680:	92 e1 00 1c 	stw	r23,28(r1)
48040684:	93 01 00 20 	stw	r24,32(r1)
48040688:	93 21 00 24 	stw	r25,36(r1)
4804068c:	93 41 00 28 	stw	r26,40(r1)
48040690:	93 61 00 2c 	stw	r27,44(r1)
48040694:	93 81 00 30 	stw	r28,48(r1)
48040698:	93 a1 00 34 	stw	r29,52(r1)
4804069c:	93 c1 00 38 	stw	r30,56(r1)
480406a0:	93 e1 00 3c 	stw	r31,60(r1)
480406a4:	90 01 00 44 	stw	r0,68(r1)
480406a8:	3c 60 48 04 	lis	r3,18436
480406ac:	38 63 2a f8 	addi	r3,r3,11000
480406b0:	3f e0 49 24 	lis	r31,18724
480406b4:	38 9f ed d0 	addi	r4,r31,-4656
480406b8:	4c c6 31 82 	crclr	4*cr1+eq
480406bc:	48 00 3d f5 	bl	480444b0 <errno+0x54>
480406c0:	38 7f ed d0 	addi	r3,r31,-4656
480406c4:	3c 80 48 04 	lis	r4,18436
480406c8:	38 84 2b 18 	addi	r4,r4,11032
480406cc:	48 00 3e 1d 	bl	480444e8 <errno+0x8c>
480406d0:	7c 7e 1b 79 	mr.	r30,r3
480406d4:	40 82 00 18 	bne	480406ec <init+0x7c>
480406d8:	3c 60 48 04 	lis	r3,18436
480406dc:	38 63 2b 1c 	addi	r3,r3,11036
480406e0:	38 9f ed d0 	addi	r4,r31,-4656
480406e4:	4c c6 31 82 	crclr	4*cr1+eq
480406e8:	48 00 3d c9 	bl	480444b0 <errno+0x54>
480406ec:	3f a0 48 04 	lis	r29,18436
480406f0:	3c 60 48 e4 	lis	r3,18660
480406f4:	38 63 ed d0 	addi	r3,r3,-4656
480406f8:	38 80 00 01 	li	r4,1
480406fc:	80 bd 44 08 	lwz	r5,17416(r29)
48040700:	7f c6 f3 78 	mr	r6,r30
48040704:	48 00 3d d5 	bl	480444d8 <errno+0x7c>
48040708:	7c 79 1b 78 	mr	r25,r3
4804070c:	80 1d 44 08 	lwz	r0,17416(r29)
48040710:	7c 19 00 00 	cmpw	r25,r0
48040714:	41 82 00 18 	beq	4804072c <init+0xbc>
48040718:	3c 60 48 04 	lis	r3,18436
4804071c:	38 63 2b 44 	addi	r3,r3,11076
48040720:	7f 24 cb 78 	mr	r4,r25
48040724:	4c c6 31 82 	crclr	4*cr1+eq
48040728:	48 00 3d 89 	bl	480444b0 <errno+0x54>
4804072c:	3d 40 48 04 	lis	r10,18436
48040730:	3d 60 48 04 	lis	r11,18436
48040734:	3d 20 48 04 	lis	r9,18436
48040738:	38 00 00 00 	li	r0,0
4804073c:	90 09 44 30 	stw	r0,17456(r9)
48040740:	90 0b 44 3c 	stw	r0,17468(r11)
48040744:	90 0a 44 48 	stw	r0,17480(r10)
48040748:	3b 20 00 00 	li	r25,0
4804074c:	3d 20 48 e4 	lis	r9,18660
48040750:	3b 89 ed d0 	addi	r28,r9,-4656
48040754:	3d 20 48 04 	lis	r9,18436
48040758:	80 09 44 08 	lwz	r0,17416(r9)
4804075c:	7c 19 00 00 	cmpw	r25,r0
48040760:	40 80 00 c4 	bge	48040824 <init+0x1b4>
48040764:	3f 00 48 04 	lis	r24,18436
48040768:	3d 20 48 06 	lis	r9,18438
4804076c:	3a c9 79 f0 	addi	r22,r9,31216
48040770:	3e a0 48 04 	lis	r21,18436
48040774:	3e e0 48 04 	lis	r23,18436
48040778:	81 38 44 30 	lwz	r9,17456(r24)
4804077c:	55 20 48 2c 	rlwinm	r0,r9,9,0,22
48040780:	7f e0 b2 14 	add	r31,r0,r22
48040784:	39 29 00 01 	addi	r9,r9,1
48040788:	91 38 44 30 	stw	r9,17456(r24)
4804078c:	80 1c 00 00 	lwz	r0,0(r28)
48040790:	7f 39 02 14 	add	r25,r25,r0
48040794:	83 bc 00 04 	lwz	r29,4(r28)
48040798:	83 5c 00 08 	lwz	r26,8(r28)
4804079c:	83 7c 00 0c 	lwz	r27,12(r28)
480407a0:	7f e3 fb 78 	mr	r3,r31
480407a4:	7f 84 e3 78 	mr	r4,r28
480407a8:	7f a5 eb 78 	mr	r5,r29
480407ac:	4c c6 31 82 	crclr	4*cr1+eq
480407b0:	48 00 3d 19 	bl	480444c8 <errno+0x6c>
480407b4:	57 a0 00 3a 	rlwinm	r0,r29,0,0,29
480407b8:	7f 9c 02 14 	add	r28,r28,r0
480407bc:	7f ff ea 14 	add	r31,r31,r29
480407c0:	3b c0 00 00 	li	r30,0
480407c4:	7c 1e d0 40 	cmplw	r30,r26
480407c8:	40 80 00 30 	bge	480407f8 <init+0x188>
480407cc:	57 7d 00 3a 	rlwinm	r29,r27,0,0,29
480407d0:	7f e3 fb 78 	mr	r3,r31
480407d4:	7f 84 e3 78 	mr	r4,r28
480407d8:	7f 65 db 78 	mr	r5,r27
480407dc:	4c c6 31 82 	crclr	4*cr1+eq
480407e0:	48 00 3c e9 	bl	480444c8 <errno+0x6c>
480407e4:	7f 9c ea 14 	add	r28,r28,r29
480407e8:	3b ff 00 40 	addi	r31,r31,64
480407ec:	3b de 00 01 	addi	r30,r30,1
480407f0:	7c 1e d0 40 	cmplw	r30,r26
480407f4:	41 80 ff dc 	blt	480407d0 <init+0x160>
480407f8:	80 18 44 30 	lwz	r0,17456(r24)
480407fc:	28 00 3e 7f 	cmplwi	r0,15999
48040800:	40 81 00 18 	ble	48040818 <init+0x1a8>
48040804:	38 75 2b 78 	addi	r3,r21,11128
48040808:	4c c6 31 82 	crclr	4*cr1+eq
4804080c:	48 00 3c a5 	bl	480444b0 <errno+0x54>
48040810:	38 60 ff ff 	li	r3,-1
48040814:	48 00 3c fd 	bl	48044510 <errno+0xb4>
48040818:	80 17 44 08 	lwz	r0,17416(r23)
4804081c:	7c 19 00 00 	cmpw	r25,r0
48040820:	41 80 ff 58 	blt	48040778 <init+0x108>
48040824:	3d 20 48 04 	lis	r9,18436
48040828:	3c 60 48 04 	lis	r3,18436
4804082c:	38 63 2b 9c 	addi	r3,r3,11164
48040830:	80 89 44 08 	lwz	r4,17416(r9)
48040834:	4c c6 31 82 	crclr	4*cr1+eq
48040838:	48 00 3c 79 	bl	480444b0 <errno+0x54>
4804083c:	3d 20 48 04 	lis	r9,18436
48040840:	3c 60 48 04 	lis	r3,18436
48040844:	38 63 2b b8 	addi	r3,r3,11192
48040848:	80 89 44 30 	lwz	r4,17456(r9)
4804084c:	4c c6 31 82 	crclr	4*cr1+eq
48040850:	48 00 3c 61 	bl	480444b0 <errno+0x54>
48040854:	3d 20 48 04 	lis	r9,18436
48040858:	3c 60 48 04 	lis	r3,18436
4804085c:	38 63 2b c8 	addi	r3,r3,11208
48040860:	80 89 44 2c 	lwz	r4,17452(r9)
48040864:	4c c6 31 82 	crclr	4*cr1+eq
48040868:	48 00 3c 49 	bl	480444b0 <errno+0x54>
4804086c:	3d 20 48 04 	lis	r9,18436
48040870:	3c 60 48 04 	lis	r3,18436
48040874:	38 63 2b dc 	addi	r3,r3,11228
48040878:	80 89 43 e8 	lwz	r4,17384(r9)
4804087c:	4c c6 31 82 	crclr	4*cr1+eq
48040880:	48 00 3c 31 	bl	480444b0 <errno+0x54>
48040884:	3c 60 48 e4 	lis	r3,18660
48040888:	38 63 e9 f0 	addi	r3,r3,-5648
4804088c:	38 80 00 00 	li	r4,0
48040890:	38 a0 01 e0 	li	r5,480
48040894:	4c c6 31 82 	crclr	4*cr1+eq
48040898:	48 00 3c 59 	bl	480444f0 <errno+0x94>
4804089c:	3c 60 49 26 	lis	r3,18726
480408a0:	38 63 ee 50 	addi	r3,r3,-4528
480408a4:	38 80 00 00 	li	r4,0
480408a8:	38 a0 60 00 	li	r5,24576
480408ac:	4c c6 31 82 	crclr	4*cr1+eq
480408b0:	48 00 3c 41 	bl	480444f0 <errno+0x94>
480408b4:	3c 60 48 83 	lis	r3,18563
480408b8:	38 63 79 f0 	addi	r3,r3,31216
480408bc:	38 80 00 00 	li	r4,0
480408c0:	3c a0 00 60 	lis	r5,96
480408c4:	4c c6 31 82 	crclr	4*cr1+eq
480408c8:	48 00 3c 29 	bl	480444f0 <errno+0x94>
480408cc:	3c 60 48 06 	lis	r3,18438
480408d0:	38 63 45 70 	addi	r3,r3,17776
480408d4:	38 80 00 00 	li	r4,0
480408d8:	38 a0 34 80 	li	r5,13440
480408dc:	4c c6 31 82 	crclr	4*cr1+eq
480408e0:	48 00 3c 11 	bl	480444f0 <errno+0x94>
480408e4:	3c 60 48 e3 	lis	r3,18659
480408e8:	38 63 79 f0 	addi	r3,r3,31216
480408ec:	38 80 00 00 	li	r4,0
480408f0:	38 a0 40 00 	li	r5,16384
480408f4:	4c c6 31 82 	crclr	4*cr1+eq
480408f8:	48 00 3b f9 	bl	480444f0 <errno+0x94>
480408fc:	3c 60 49 24 	lis	r3,18724
48040900:	38 63 ee 50 	addi	r3,r3,-4528
48040904:	38 80 00 00 	li	r4,0
48040908:	3c a0 00 02 	lis	r5,2
4804090c:	4c c6 31 82 	crclr	4*cr1+eq
48040910:	48 00 3b e1 	bl	480444f0 <errno+0x94>
48040914:	3c 60 48 04 	lis	r3,18436
48040918:	38 63 45 70 	addi	r3,r3,17776
4804091c:	38 80 00 00 	li	r4,0
48040920:	3c a0 00 02 	lis	r5,2
48040924:	4c c6 31 82 	crclr	4*cr1+eq
48040928:	48 00 3b c9 	bl	480444f0 <errno+0x94>
4804092c:	3d 60 48 04 	lis	r11,18436
48040930:	3d 20 48 04 	lis	r9,18436
48040934:	38 00 00 00 	li	r0,0
48040938:	90 09 44 20 	stw	r0,17440(r9)
4804093c:	90 0b 44 4c 	stw	r0,17484(r11)
48040940:	3b c0 00 00 	li	r30,0
48040944:	3d 20 48 e3 	lis	r9,18659
48040948:	39 49 79 f8 	addi	r10,r9,31224
4804094c:	3d 20 48 06 	lis	r9,18438
48040950:	39 69 79 f0 	addi	r11,r9,31216
48040954:	57 c9 20 36 	rlwinm	r9,r30,4,0,27
48040958:	57 c0 48 2c 	rlwinm	r0,r30,9,0,22
4804095c:	7c 00 5a 14 	add	r0,r0,r11
48040960:	7c 0a 49 2e 	stwx	r0,r10,r9
48040964:	3b de 00 01 	addi	r30,r30,1
48040968:	2c 1e 03 ff 	cmpwi	r30,1023
4804096c:	40 81 ff e8 	ble	48040954 <init+0x2e4>
48040970:	3d 20 48 04 	lis	r9,18436
48040974:	38 00 04 00 	li	r0,1024
48040978:	90 09 44 48 	stw	r0,17480(r9)
4804097c:	3d 20 48 04 	lis	r9,18436
48040980:	38 00 00 00 	li	r0,0
48040984:	90 09 44 54 	stw	r0,17492(r9)
48040988:	3b c0 00 00 	li	r30,0
4804098c:	3d 20 49 24 	lis	r9,18724
48040990:	39 49 ee 58 	addi	r10,r9,-4520
48040994:	3d 20 48 04 	lis	r9,18436
48040998:	39 69 45 70 	addi	r11,r9,17776
4804099c:	57 c9 20 36 	rlwinm	r9,r30,4,0,27
480409a0:	57 c0 28 34 	rlwinm	r0,r30,5,0,26
480409a4:	7c 00 5a 14 	add	r0,r0,r11
480409a8:	7c 0a 49 2e 	stwx	r0,r10,r9
480409ac:	3b de 00 02 	addi	r30,r30,2
480409b0:	2c 1e 03 ff 	cmpwi	r30,1023
480409b4:	40 81 ff e8 	ble	4804099c <init+0x32c>
480409b8:	3d 40 48 04 	lis	r10,18436
480409bc:	3d 20 48 04 	lis	r9,18436
480409c0:	3d 60 48 04 	lis	r11,18436
480409c4:	80 09 44 2c 	lwz	r0,17452(r9)
480409c8:	81 2b 43 e8 	lwz	r9,17384(r11)
480409cc:	7c 00 49 d6 	mullw	r0,r0,r9
480409d0:	3d 20 59 3d 	lis	r9,22845
480409d4:	61 29 92 1b 	ori	r9,r9,37403
480409d8:	7d 20 48 96 	mulhw	r9,r0,r9
480409dc:	7d 29 9e 70 	srawi	r9,r9,19
480409e0:	7c 00 fe 70 	srawi	r0,r0,31
480409e4:	7d 20 48 50 	subf	r9,r0,r9
480409e8:	39 29 00 01 	addi	r9,r9,1
480409ec:	91 2a 44 38 	stw	r9,17464(r10)
480409f0:	3d 40 48 04 	lis	r10,18436
480409f4:	3d 60 48 04 	lis	r11,18436
480409f8:	80 0b 44 10 	lwz	r0,17424(r11)
480409fc:	7c 00 49 d6 	mullw	r0,r0,r9
48040a00:	90 0a 44 28 	stw	r0,17448(r10)
48040a04:	38 c0 00 00 	li	r6,0
48040a08:	3b c0 00 00 	li	r30,0
48040a0c:	7c 1e 48 00 	cmpw	r30,r9
48040a10:	40 80 00 6c 	bge	48040a7c <init+0x40c>
48040a14:	3d 20 48 04 	lis	r9,18436
48040a18:	80 a9 44 10 	lwz	r5,17424(r9)
48040a1c:	3d 20 48 04 	lis	r9,18436
48040a20:	80 e9 44 38 	lwz	r7,17464(r9)
48040a24:	39 00 00 00 	li	r8,0
48040a28:	7c 08 28 00 	cmpw	r8,r5
48040a2c:	40 80 00 44 	bge	48040a70 <init+0x400>
48040a30:	57 cb 10 3a 	rlwinm	r11,r30,2,0,29
48040a34:	3d 20 48 06 	lis	r9,18438
48040a38:	39 49 45 72 	addi	r10,r9,17778
48040a3c:	3d 20 48 04 	lis	r9,18436
48040a40:	81 29 44 10 	lwz	r9,17424(r9)
48040a44:	55 00 18 38 	rlwinm	r0,r8,3,0,28
48040a48:	7c 00 42 14 	add	r0,r0,r8
48040a4c:	54 00 10 3a 	rlwinm	r0,r0,2,0,29
48040a50:	7c 08 00 50 	subf	r0,r8,r0
48040a54:	54 00 20 36 	rlwinm	r0,r0,4,0,27
48040a58:	7c 0b 02 14 	add	r0,r11,r0
48040a5c:	7c ca 03 2e 	sthx	r6,r10,r0
48040a60:	38 c6 00 01 	addi	r6,r6,1
48040a64:	39 08 00 01 	addi	r8,r8,1
48040a68:	7c 08 48 00 	cmpw	r8,r9
48040a6c:	41 80 ff d8 	blt	48040a44 <init+0x3d4>
48040a70:	3b de 00 01 	addi	r30,r30,1
48040a74:	7c 1e 38 00 	cmpw	r30,r7
48040a78:	41 80 ff ac 	blt	48040a24 <init+0x3b4>
48040a7c:	3d 60 48 04 	lis	r11,18436
48040a80:	3d 20 48 04 	lis	r9,18436
48040a84:	80 09 43 e8 	lwz	r0,17384(r9)
48040a88:	39 20 00 00 	li	r9,0
48040a8c:	61 29 d2 f0 	ori	r9,r9,54000
48040a90:	7c 00 49 d6 	mullw	r0,r0,r9
48040a94:	3d 20 48 04 	lis	r9,18436
48040a98:	81 29 44 38 	lwz	r9,17464(r9)
48040a9c:	7c 00 4b d6 	divw	r0,r0,r9
48040aa0:	90 0b 44 44 	stw	r0,17476(r11)
48040aa4:	39 00 00 00 	li	r8,0
48040aa8:	3d 20 48 e4 	lis	r9,18660
48040aac:	3b a9 e9 f4 	addi	r29,r9,-5644
48040ab0:	3f c0 48 04 	lis	r30,18436
48040ab4:	3d 20 48 e4 	lis	r9,18660
48040ab8:	3b e9 e9 f8 	addi	r31,r9,-5640
48040abc:	3c 60 48 04 	lis	r3,18436
48040ac0:	3d 20 49 26 	lis	r9,18726
48040ac4:	38 89 ee 50 	addi	r4,r9,-4528
48040ac8:	38 c0 00 00 	li	r6,0
48040acc:	38 a0 29 20 	li	r5,10528
48040ad0:	55 00 10 3a 	rlwinm	r0,r8,2,0,29
48040ad4:	7c 00 42 14 	add	r0,r0,r8
48040ad8:	54 00 10 3a 	rlwinm	r0,r0,2,0,29
48040adc:	81 7e 44 38 	lwz	r11,17464(r30)
48040ae0:	7d 7d 01 2e 	stwx	r11,r29,r0
48040ae4:	81 23 43 e8 	lwz	r9,17384(r3)
48040ae8:	1d 29 69 78 	mulli	r9,r9,27000
48040aec:	7d 29 5b d6 	divw	r9,r9,r11
48040af0:	7d 3f 01 2e 	stwx	r9,r31,r0
48040af4:	39 40 00 00 	li	r10,0
48040af8:	55 0b 50 2a 	rlwinm	r11,r8,10,0,21
48040afc:	55 49 30 32 	rlwinm	r9,r10,6,0,25
48040b00:	7d 29 22 14 	add	r9,r9,r4
48040b04:	7c eb 4a 14 	add	r7,r11,r9
48040b08:	90 c7 00 04 	stw	r6,4(r7)
48040b0c:	7c cb 49 2e 	stwx	r6,r11,r9
48040b10:	98 c7 00 08 	stb	r6,8(r7)
48040b14:	90 a7 00 30 	stw	r5,48(r7)
48040b18:	39 4a 00 01 	addi	r10,r10,1
48040b1c:	2c 0a 00 0f 	cmpwi	r10,15
48040b20:	40 81 ff dc 	ble	48040afc <init+0x48c>
48040b24:	39 08 00 01 	addi	r8,r8,1
48040b28:	2c 08 00 17 	cmpwi	r8,23
48040b2c:	40 81 ff a4 	ble	48040ad0 <init+0x460>
48040b30:	3f a0 48 e4 	lis	r29,18660
48040b34:	3b bd e9 f0 	addi	r29,r29,-5648
48040b38:	3c 60 48 04 	lis	r3,18436
48040b3c:	38 63 2b fc 	addi	r3,r3,11260
48040b40:	80 9d 00 04 	lwz	r4,4(r29)
48040b44:	4c c6 31 82 	crclr	4*cr1+eq
48040b48:	48 00 39 69 	bl	480444b0 <errno+0x54>
48040b4c:	3c 60 48 04 	lis	r3,18436
48040b50:	38 63 2c 20 	addi	r3,r3,11296
48040b54:	80 9d 00 08 	lwz	r4,8(r29)
48040b58:	4c c6 31 82 	crclr	4*cr1+eq
48040b5c:	48 00 39 55 	bl	480444b0 <errno+0x54>
48040b60:	3b c0 00 00 	li	r30,0
48040b64:	3d 20 48 04 	lis	r9,18436
48040b68:	80 09 44 34 	lwz	r0,17460(r9)
48040b6c:	7c 1e 00 00 	cmpw	r30,r0
48040b70:	40 80 00 f0 	bge	48040c60 <init+0x5f0>
48040b74:	3d 20 48 e4 	lis	r9,18660
48040b78:	3a e9 b9 f0 	addi	r23,r9,-17936
48040b7c:	3d 20 48 e4 	lis	r9,18660
48040b80:	3b 69 e9 f0 	addi	r27,r9,-5648
48040b84:	3d 20 49 26 	lis	r9,18726
48040b88:	3b 09 ee 50 	addi	r24,r9,-4528
48040b8c:	3d 20 48 e4 	lis	r9,18660
48040b90:	3b 29 b9 f4 	addi	r25,r9,-17932
48040b94:	3f 40 48 04 	lis	r26,18436
48040b98:	57 ca 28 34 	rlwinm	r10,r30,5,0,26
48040b9c:	7d 2a ba 14 	add	r9,r10,r23
48040ba0:	a1 69 00 02 	lhz	r11,2(r9)
48040ba4:	55 68 d6 3e 	rlwinm	r8,r11,26,24,31
48040ba8:	55 00 10 3a 	rlwinm	r0,r8,2,0,29
48040bac:	7c 00 42 14 	add	r0,r0,r8
48040bb0:	54 00 10 3a 	rlwinm	r0,r0,2,0,29
48040bb4:	7d 3b 00 2e 	lwzx	r9,r27,r0
48040bb8:	39 29 00 01 	addi	r9,r9,1
48040bbc:	7d 3b 01 2e 	stwx	r9,r27,r0
48040bc0:	55 00 50 2a 	rlwinm	r0,r8,10,0,21
48040bc4:	55 6b 2d 72 	rlwinm	r11,r11,5,21,25
48040bc8:	7d 6b c2 14 	add	r11,r11,r24
48040bcc:	7c e0 5a 14 	add	r7,r0,r11
48040bd0:	7d 4a ca 14 	add	r10,r10,r25
48040bd4:	88 0a 00 03 	lbz	r0,3(r10)
48040bd8:	98 07 00 08 	stb	r0,8(r7)
48040bdc:	38 c0 00 00 	li	r6,0
48040be0:	54 00 06 3e 	clrlwi	r0,r0,24
48040be4:	7c 06 00 00 	cmpw	r6,r0
48040be8:	40 80 00 68 	bge	48040c50 <init+0x5e0>
48040bec:	3d 20 48 e4 	lis	r9,18660
48040bf0:	3b 89 b9 f0 	addi	r28,r9,-17936
48040bf4:	57 c3 28 34 	rlwinm	r3,r30,5,0,26
48040bf8:	38 87 00 0a 	addi	r4,r7,10
48040bfc:	3d 20 48 e4 	lis	r9,18660
48040c00:	3b a9 b9 f8 	addi	r29,r9,-17928
48040c04:	38 a7 00 0c 	addi	r5,r7,12
48040c08:	3d 20 48 e4 	lis	r9,18660
48040c0c:	3b e9 b9 fa 	addi	r31,r9,-17926
48040c10:	54 cb 10 3a 	rlwinm	r11,r6,2,0,29
48040c14:	7d 6b 32 14 	add	r11,r11,r6
48040c18:	7d 6b 32 14 	add	r11,r11,r6
48040c1c:	7d 07 5a 14 	add	r8,r7,r11
48040c20:	7d 4b 1a 14 	add	r10,r11,r3
48040c24:	7d 2a e2 14 	add	r9,r10,r28
48040c28:	88 09 00 0c 	lbz	r0,12(r9)
48040c2c:	98 08 00 0e 	stb	r0,14(r8)
48040c30:	7c 1d 52 2e 	lhzx	r0,r29,r10
48040c34:	7c 04 5b 2e 	sthx	r0,r4,r11
48040c38:	7c 1f 52 2e 	lhzx	r0,r31,r10
48040c3c:	7c 05 5b 2e 	sthx	r0,r5,r11
48040c40:	38 c6 00 01 	addi	r6,r6,1
48040c44:	88 07 00 08 	lbz	r0,8(r7)
48040c48:	7c 06 00 00 	cmpw	r6,r0
48040c4c:	41 80 ff c4 	blt	48040c10 <init+0x5a0>
48040c50:	3b de 00 01 	addi	r30,r30,1
48040c54:	80 1a 44 34 	lwz	r0,17460(r26)
48040c58:	7c 1e 00 00 	cmpw	r30,r0
48040c5c:	41 80 ff 3c 	blt	48040b98 <init+0x528>
48040c60:	80 01 00 44 	lwz	r0,68(r1)
48040c64:	7c 08 03 a6 	mtlr	r0
48040c68:	82 a1 00 14 	lwz	r21,20(r1)
48040c6c:	82 c1 00 18 	lwz	r22,24(r1)
48040c70:	82 e1 00 1c 	lwz	r23,28(r1)
48040c74:	83 01 00 20 	lwz	r24,32(r1)
48040c78:	83 21 00 24 	lwz	r25,36(r1)
48040c7c:	83 41 00 28 	lwz	r26,40(r1)
48040c80:	83 61 00 2c 	lwz	r27,44(r1)
48040c84:	83 81 00 30 	lwz	r28,48(r1)
48040c88:	83 a1 00 34 	lwz	r29,52(r1)
48040c8c:	83 c1 00 38 	lwz	r30,56(r1)
48040c90:	83 e1 00 3c 	lwz	r31,60(r1)
48040c94:	38 21 00 40 	addi	r1,r1,64
48040c98:	4e 80 00 20 	blr

48040c9c <procPmtTp>:
48040c9c:	4e 80 00 20 	blr

48040ca0 <inputHwSim>:
48040ca0:	94 21 ff d0 	stwu	r1,-48(r1)
48040ca4:	7c 08 02 a6 	mflr	r0
48040ca8:	92 c1 00 08 	stw	r22,8(r1)
48040cac:	92 e1 00 0c 	stw	r23,12(r1)
48040cb0:	93 01 00 10 	stw	r24,16(r1)
48040cb4:	93 21 00 14 	stw	r25,20(r1)
48040cb8:	93 41 00 18 	stw	r26,24(r1)
48040cbc:	93 61 00 1c 	stw	r27,28(r1)
48040cc0:	93 81 00 20 	stw	r28,32(r1)
48040cc4:	93 a1 00 24 	stw	r29,36(r1)
48040cc8:	93 c1 00 28 	stw	r30,40(r1)
48040ccc:	93 e1 00 2c 	stw	r31,44(r1)
48040cd0:	90 01 00 34 	stw	r0,52(r1)
48040cd4:	3d 20 48 04 	lis	r9,18436
48040cd8:	80 09 44 14 	lwz	r0,17428(r9)
48040cdc:	2c 00 00 00 	cmpwi	r0,0
48040ce0:	41 82 00 24 	beq	48040d04 <inputHwSim+0x64>
48040ce4:	3d 20 48 04 	lis	r9,18436
48040ce8:	3d 60 48 04 	lis	r11,18436
48040cec:	3c 60 48 04 	lis	r3,18436
48040cf0:	38 63 2c 38 	addi	r3,r3,11320
48040cf4:	80 89 44 24 	lwz	r4,17444(r9)
48040cf8:	80 ab 44 1c 	lwz	r5,17436(r11)
48040cfc:	4c c6 31 82 	crclr	4*cr1+eq
48040d00:	48 00 37 b1 	bl	480444b0 <errno+0x54>
48040d04:	3e c0 48 04 	lis	r22,18436
48040d08:	3d 20 48 e3 	lis	r9,18659
48040d0c:	3b 89 79 f0 	addi	r28,r9,31216
48040d10:	3f a0 48 04 	lis	r29,18436
48040d14:	3e e0 48 04 	lis	r23,18436
48040d18:	3f 00 48 04 	lis	r24,18436
48040d1c:	3b 20 00 00 	li	r25,0
48040d20:	3f 40 48 04 	lis	r26,18436
48040d24:	3d 20 48 06 	lis	r9,18438
48040d28:	3b 69 77 f0 	addi	r27,r9,30704
48040d2c:	81 76 44 20 	lwz	r11,17440(r22)
48040d30:	55 6b 20 36 	rlwinm	r11,r11,4,0,27
48040d34:	7f eb e2 14 	add	r31,r11,r28
48040d38:	81 3f 00 08 	lwz	r9,8(r31)
48040d3c:	81 29 00 10 	lwz	r9,16(r9)
48040d40:	80 1d 43 ec 	lwz	r0,17388(r29)
48040d44:	7f c9 02 14 	add	r30,r9,r0
48040d48:	7c 0b e0 2e 	lwzx	r0,r11,r28
48040d4c:	2c 00 00 00 	cmpwi	r0,0
48040d50:	40 80 00 10 	bge	48040d60 <inputHwSim+0xc0>
48040d54:	38 77 2c 54 	addi	r3,r23,11348
48040d58:	4c c6 31 82 	crclr	4*cr1+eq
48040d5c:	48 00 37 55 	bl	480444b0 <errno+0x54>
48040d60:	80 18 44 1c 	lwz	r0,17436(r24)
48040d64:	7c 1e 00 40 	cmplw	r30,r0
48040d68:	41 81 00 5c 	bgt	48040dc4 <inputHwSim+0x124>
48040d6c:	80 1f 00 00 	lwz	r0,0(r31)
48040d70:	64 00 80 00 	oris	r0,r0,32768
48040d74:	90 1f 00 00 	stw	r0,0(r31)
48040d78:	3d 60 48 04 	lis	r11,18436
48040d7c:	81 2b 44 20 	lwz	r9,17440(r11)
48040d80:	39 29 00 01 	addi	r9,r9,1
48040d84:	91 2b 44 20 	stw	r9,17440(r11)
48040d88:	28 09 03 ff 	cmplwi	r9,1023
48040d8c:	40 81 00 08 	ble	48040d94 <inputHwSim+0xf4>
48040d90:	93 2b 44 20 	stw	r25,17440(r11)
48040d94:	80 1a 44 30 	lwz	r0,17456(r26)
48040d98:	54 00 48 2c 	rlwinm	r0,r0,9,0,22
48040d9c:	7c 00 da 14 	add	r0,r0,r27
48040da0:	81 3f 00 08 	lwz	r9,8(r31)
48040da4:	7c 09 00 00 	cmpw	r9,r0
48040da8:	40 82 ff 84 	bne	48040d2c <inputHwSim+0x8c>
48040dac:	93 dd 43 ec 	stw	r30,17388(r29)
48040db0:	3c 60 48 04 	lis	r3,18436
48040db4:	38 63 2c 80 	addi	r3,r3,11392
48040db8:	4c c6 31 82 	crclr	4*cr1+eq
48040dbc:	48 00 36 f5 	bl	480444b0 <errno+0x54>
48040dc0:	4b ff ff 6c 	b	48040d2c <inputHwSim+0x8c>
48040dc4:	80 01 00 34 	lwz	r0,52(r1)
48040dc8:	7c 08 03 a6 	mtlr	r0
48040dcc:	82 c1 00 08 	lwz	r22,8(r1)
48040dd0:	82 e1 00 0c 	lwz	r23,12(r1)
48040dd4:	83 01 00 10 	lwz	r24,16(r1)
48040dd8:	83 21 00 14 	lwz	r25,20(r1)
48040ddc:	83 41 00 18 	lwz	r26,24(r1)
48040de0:	83 61 00 1c 	lwz	r27,28(r1)
48040de4:	83 81 00 20 	lwz	r28,32(r1)
48040de8:	83 a1 00 24 	lwz	r29,36(r1)
48040dec:	83 c1 00 28 	lwz	r30,40(r1)
48040df0:	83 e1 00 2c 	lwz	r31,44(r1)
48040df4:	38 21 00 30 	addi	r1,r1,48
48040df8:	4e 80 00 20 	blr

48040dfc <inputTask>:
48040dfc:	94 21 ff b0 	stwu	r1,-80(r1)
48040e00:	7c 08 02 a6 	mflr	r0
48040e04:	92 01 00 10 	stw	r16,16(r1)
48040e08:	92 21 00 14 	stw	r17,20(r1)
48040e0c:	92 41 00 18 	stw	r18,24(r1)
48040e10:	92 61 00 1c 	stw	r19,28(r1)
48040e14:	92 81 00 20 	stw	r20,32(r1)
48040e18:	92 a1 00 24 	stw	r21,36(r1)
48040e1c:	92 c1 00 28 	stw	r22,40(r1)
48040e20:	92 e1 00 2c 	stw	r23,44(r1)
48040e24:	93 01 00 30 	stw	r24,48(r1)
48040e28:	93 21 00 34 	stw	r25,52(r1)
48040e2c:	93 41 00 38 	stw	r26,56(r1)
48040e30:	93 61 00 3c 	stw	r27,60(r1)
48040e34:	93 81 00 40 	stw	r28,64(r1)
48040e38:	93 a1 00 44 	stw	r29,68(r1)
48040e3c:	93 c1 00 48 	stw	r30,72(r1)
48040e40:	93 e1 00 4c 	stw	r31,76(r1)
48040e44:	90 01 00 54 	stw	r0,84(r1)
48040e48:	3d 20 48 04 	lis	r9,18436
48040e4c:	80 09 44 14 	lwz	r0,17428(r9)
48040e50:	2c 00 00 00 	cmpwi	r0,0
48040e54:	41 82 00 24 	beq	48040e78 <inputTask+0x7c>
48040e58:	3d 20 48 04 	lis	r9,18436
48040e5c:	3d 60 48 04 	lis	r11,18436
48040e60:	3c 60 48 04 	lis	r3,18436
48040e64:	38 63 2c a0 	addi	r3,r3,11424
48040e68:	80 89 44 24 	lwz	r4,17444(r9)
48040e6c:	80 ab 44 1c 	lwz	r5,17436(r11)
48040e70:	4c c6 31 82 	crclr	4*cr1+eq
48040e74:	48 00 36 3d 	bl	480444b0 <errno+0x54>
48040e78:	3e 80 48 04 	lis	r20,18436
48040e7c:	3d 20 48 e3 	lis	r9,18659
48040e80:	3a 49 79 f0 	addi	r18,r9,31216
48040e84:	3e 60 48 04 	lis	r19,18436
48040e88:	3d 20 49 26 	lis	r9,18726
48040e8c:	3a 09 ee 50 	addi	r16,r9,-4528
48040e90:	3a 20 00 00 	li	r17,0
48040e94:	81 74 44 4c 	lwz	r11,17484(r20)
48040e98:	55 60 20 36 	rlwinm	r0,r11,4,0,27
48040e9c:	7f 20 92 14 	add	r25,r0,r18
48040ea0:	7c 12 00 2e 	lwzx	r0,r18,r0
48040ea4:	2c 00 00 00 	cmpwi	r0,0
48040ea8:	40 80 02 a0 	bge	48041148 <inputTask+0x34c>
48040eac:	83 d9 00 08 	lwz	r30,8(r25)
48040eb0:	81 3e 00 10 	lwz	r9,16(r30)
48040eb4:	80 13 43 f0 	lwz	r0,17392(r19)
48040eb8:	7f 09 02 14 	add	r24,r9,r0
48040ebc:	a0 1e 00 18 	lhz	r0,24(r30)
48040ec0:	3d 20 ae 4c 	lis	r9,-20916
48040ec4:	61 29 41 5d 	ori	r9,r9,16733
48040ec8:	7c 00 48 16 	mulhwu	r0,r0,r9
48040ecc:	54 16 cc 3e 	rlwinm	r22,r0,25,16,31
48040ed0:	a0 1e 00 16 	lhz	r0,22(r30)
48040ed4:	54 1c d6 3e 	rlwinm	r28,r0,26,24,31
48040ed8:	54 1d fe fe 	rlwinm	r29,r0,31,27,31
48040edc:	57 89 50 2a 	rlwinm	r9,r28,10,0,21
48040ee0:	57 a0 30 32 	rlwinm	r0,r29,6,0,25
48040ee4:	7c 00 82 14 	add	r0,r0,r16
48040ee8:	7f e9 02 14 	add	r31,r9,r0
48040eec:	38 0b 00 01 	addi	r0,r11,1
48040ef0:	90 14 44 4c 	stw	r0,17484(r20)
48040ef4:	28 00 03 ff 	cmplwi	r0,1023
48040ef8:	40 81 00 08 	ble	48040f00 <inputTask+0x104>
48040efc:	92 34 44 4c 	stw	r17,17484(r20)
48040f00:	80 74 44 4c 	lwz	r3,17484(r20)
48040f04:	54 63 20 36 	rlwinm	r3,r3,4,0,27
48040f08:	7c 63 92 14 	add	r3,r3,r18
48040f0c:	4b ff f7 39 	bl	48040644 <data_hint>
48040f10:	81 39 00 08 	lwz	r9,8(r25)
48040f14:	80 1e 00 04 	lwz	r0,4(r30)
48040f18:	7f 69 02 14 	add	r27,r9,r0
48040f1c:	3b 40 00 00 	li	r26,0
48040f20:	7c 1a b0 00 	cmpw	r26,r22
48040f24:	40 80 01 b4 	bge	480410d8 <inputTask+0x2dc>
48040f28:	57 8b 90 1a 	rlwinm	r11,r28,18,0,13
48040f2c:	57 a0 70 22 	rlwinm	r0,r29,14,0,17
48040f30:	3d 20 48 83 	lis	r9,18563
48040f34:	39 29 79 f0 	addi	r9,r9,31216
48040f38:	7c 00 4a 14 	add	r0,r0,r9
48040f3c:	7e ab 02 14 	add	r21,r11,r0
48040f40:	3a e0 00 00 	li	r23,0
48040f44:	3f 80 48 04 	lis	r28,18436
48040f48:	3f a0 48 04 	lis	r29,18436
48040f4c:	38 7b 00 40 	addi	r3,r27,64
48040f50:	4b ff f6 f5 	bl	48040644 <data_hint>
48040f54:	7f 6a db 78 	mr	r10,r27
48040f58:	81 3f 00 04 	lwz	r9,4(r31)
48040f5c:	55 20 20 36 	rlwinm	r0,r9,4,0,27
48040f60:	7f d5 02 14 	add	r30,r21,r0
48040f64:	39 29 00 01 	addi	r9,r9,1
48040f68:	91 3f 00 04 	stw	r9,4(r31)
48040f6c:	28 09 03 ff 	cmplwi	r9,1023
48040f70:	40 81 00 08 	ble	48040f78 <inputTask+0x17c>
48040f74:	92 ff 00 04 	stw	r23,4(r31)
48040f78:	91 5e 00 04 	stw	r10,4(r30)
48040f7c:	81 3f 00 24 	lwz	r9,36(r31)
48040f80:	39 29 00 01 	addi	r9,r9,1
48040f84:	91 3f 00 24 	stw	r9,36(r31)
48040f88:	81 3c 43 f4 	lwz	r9,17396(r28)
48040f8c:	39 29 00 01 	addi	r9,r9,1
48040f90:	91 3c 43 f4 	stw	r9,17396(r28)
48040f94:	3d 20 48 04 	lis	r9,18436
48040f98:	80 09 44 44 	lwz	r0,17476(r9)
48040f9c:	7c 1a 01 d6 	mullw	r0,r26,r0
48040fa0:	7c 18 02 14 	add	r0,r24,r0
48040fa4:	90 1e 00 0c 	stw	r0,12(r30)
48040fa8:	90 1f 00 34 	stw	r0,52(r31)
48040fac:	80 0a 00 00 	lwz	r0,0(r10)
48040fb0:	54 05 c4 fe 	rlwinm	r5,r0,24,19,31
48040fb4:	39 60 00 00 	li	r11,0
48040fb8:	88 df 00 08 	lbz	r6,8(r31)
48040fbc:	39 1f 00 0a 	addi	r8,r31,10
48040fc0:	38 ff 00 0c 	addi	r7,r31,12
48040fc4:	48 00 00 08 	b	48040fcc <inputTask+0x1d0>
48040fc8:	39 6b 00 01 	addi	r11,r11,1
48040fcc:	7c 0b 30 00 	cmpw	r11,r6
48040fd0:	40 80 00 30 	bge	48041000 <inputTask+0x204>
48040fd4:	55 60 10 3a 	rlwinm	r0,r11,2,0,29
48040fd8:	7c 00 5a 14 	add	r0,r0,r11
48040fdc:	7d 20 5a 14 	add	r9,r0,r11
48040fe0:	7c 08 4a 2e 	lhzx	r0,r8,r9
48040fe4:	7c 05 00 00 	cmpw	r5,r0
48040fe8:	40 82 ff e0 	bne	48040fc8 <inputTask+0x1cc>
48040fec:	7c 07 4a 2e 	lhzx	r0,r7,r9
48040ff0:	b0 1e 00 02 	sth	r0,2(r30)
48040ff4:	7d 3f 4a 14 	add	r9,r31,r9
48040ff8:	88 09 00 0e 	lbz	r0,14(r9)
48040ffc:	98 1e 00 01 	stb	r0,1(r30)
48041000:	88 1f 00 08 	lbz	r0,8(r31)
48041004:	7c 0b 00 00 	cmpw	r11,r0
48041008:	40 82 00 14 	bne	4804101c <inputTask+0x220>
4804100c:	81 3d 44 04 	lwz	r9,17412(r29)
48041010:	39 29 00 01 	addi	r9,r9,1
48041014:	91 3d 44 04 	stw	r9,17412(r29)
48041018:	48 00 00 b0 	b	480410c8 <inputTask+0x2cc>
4804101c:	9a fe 00 00 	stb	r23,0(r30)
48041020:	80 0a 00 00 	lwz	r0,0(r10)
48041024:	70 09 00 20 	andi.	r9,r0,32
48041028:	41 82 00 8c 	beq	480410b4 <inputTask+0x2b8>
4804102c:	80 0a 00 04 	lwz	r0,4(r10)
48041030:	54 09 46 3f 	rlwinm.	r9,r0,8,24,31
48041034:	41 82 00 80 	beq	480410b4 <inputTask+0x2b8>
48041038:	74 09 00 10 	andis.	r9,r0,16
4804103c:	41 82 00 78 	beq	480410b4 <inputTask+0x2b8>
48041040:	54 09 8a 5c 	rlwinm	r9,r0,17,9,14
48041044:	81 6a 00 08 	lwz	r11,8(r10)
48041048:	55 60 8b fe 	rlwinm	r0,r11,17,15,31
4804104c:	7d 29 03 78 	or	r9,r9,r0
48041050:	55 6b 05 fe 	clrlwi	r11,r11,23
48041054:	38 00 00 01 	li	r0,1
48041058:	98 1e 00 00 	stb	r0,0(r30)
4804105c:	55 20 10 3a 	rlwinm	r0,r9,2,0,29
48041060:	7c 00 4a 14 	add	r0,r0,r9
48041064:	54 09 20 36 	rlwinm	r9,r0,4,0,27
48041068:	7d 20 48 50 	subf	r9,r0,r9
4804106c:	55 29 10 3a 	rlwinm	r9,r9,2,0,29
48041070:	7d 29 5a 14 	add	r9,r9,r11
48041074:	80 13 43 f0 	lwz	r0,17392(r19)
48041078:	7d 29 02 14 	add	r9,r9,r0
4804107c:	91 3e 00 08 	stw	r9,8(r30)
48041080:	81 7f 00 2c 	lwz	r11,44(r31)
48041084:	7d 6b 48 50 	subf	r11,r11,r9
48041088:	81 5f 00 24 	lwz	r10,36(r31)
4804108c:	80 1f 00 28 	lwz	r0,40(r31)
48041090:	7c 00 50 50 	subf	r0,r0,r10
48041094:	7d 6b 03 96 	divwu	r11,r11,r0
48041098:	91 7f 00 30 	stw	r11,48(r31)
4804109c:	91 5f 00 28 	stw	r10,40(r31)
480410a0:	91 3f 00 2c 	stw	r9,44(r31)
480410a4:	7f e3 fb 78 	mr	r3,r31
480410a8:	7f c4 f3 78 	mr	r4,r30
480410ac:	7f 05 c3 78 	mr	r5,r24
480410b0:	4b ff f5 9d 	bl	4804064c <clockRecovery>
480410b4:	88 1e 00 01 	lbz	r0,1(r30)
480410b8:	2c 00 00 03 	cmpwi	r0,3
480410bc:	40 82 00 0c 	bne	480410c8 <inputTask+0x2cc>
480410c0:	7f c3 f3 78 	mr	r3,r30
480410c4:	4b ff fb d9 	bl	48040c9c <procPmtTp>
480410c8:	3b 5a 00 01 	addi	r26,r26,1
480410cc:	3b 7b 00 40 	addi	r27,r27,64
480410d0:	7c 1a b0 00 	cmpw	r26,r22
480410d4:	41 80 fe 78 	blt	48040f4c <inputTask+0x150>
480410d8:	3d 20 48 04 	lis	r9,18436
480410dc:	81 69 44 30 	lwz	r11,17456(r9)
480410e0:	55 6b 48 2c 	rlwinm	r11,r11,9,0,22
480410e4:	3d 20 48 06 	lis	r9,18438
480410e8:	39 29 77 f0 	addi	r9,r9,30704
480410ec:	7d 6b 4a 14 	add	r11,r11,r9
480410f0:	80 19 00 08 	lwz	r0,8(r25)
480410f4:	7c 00 58 00 	cmpw	r0,r11
480410f8:	40 82 00 08 	bne	48041100 <inputTask+0x304>
480410fc:	93 13 43 f0 	stw	r24,17392(r19)
48041100:	3d 40 48 04 	lis	r10,18436
48041104:	81 6a 44 48 	lwz	r11,17480(r10)
48041108:	55 60 48 2c 	rlwinm	r0,r11,9,0,22
4804110c:	3d 20 48 06 	lis	r9,18438
48041110:	39 29 79 f0 	addi	r9,r9,31216
48041114:	7c 00 4a 14 	add	r0,r0,r9
48041118:	90 19 00 08 	stw	r0,8(r25)
4804111c:	80 19 00 00 	lwz	r0,0(r25)
48041120:	54 00 00 7e 	clrlwi	r0,r0,1
48041124:	90 19 00 00 	stw	r0,0(r25)
48041128:	39 6b 00 01 	addi	r11,r11,1
4804112c:	91 6a 44 48 	stw	r11,17480(r10)
48041130:	3d 20 48 04 	lis	r9,18436
48041134:	80 09 44 30 	lwz	r0,17456(r9)
48041138:	7c 0b 00 40 	cmplw	r11,r0
4804113c:	41 80 fd 58 	blt	48040e94 <inputTask+0x98>
48041140:	92 2a 44 48 	stw	r17,17480(r10)
48041144:	4b ff fd 50 	b	48040e94 <inputTask+0x98>
48041148:	80 01 00 54 	lwz	r0,84(r1)
4804114c:	7c 08 03 a6 	mtlr	r0
48041150:	82 01 00 10 	lwz	r16,16(r1)
48041154:	82 21 00 14 	lwz	r17,20(r1)
48041158:	82 41 00 18 	lwz	r18,24(r1)
4804115c:	82 61 00 1c 	lwz	r19,28(r1)
48041160:	82 81 00 20 	lwz	r20,32(r1)
48041164:	82 a1 00 24 	lwz	r21,36(r1)
48041168:	82 c1 00 28 	lwz	r22,40(r1)
4804116c:	82 e1 00 2c 	lwz	r23,44(r1)
48041170:	83 01 00 30 	lwz	r24,48(r1)
48041174:	83 21 00 34 	lwz	r25,52(r1)
48041178:	83 41 00 38 	lwz	r26,56(r1)
4804117c:	83 61 00 3c 	lwz	r27,60(r1)
48041180:	83 81 00 40 	lwz	r28,64(r1)
48041184:	83 a1 00 44 	lwz	r29,68(r1)
48041188:	83 c1 00 48 	lwz	r30,72(r1)
4804118c:	83 e1 00 4c 	lwz	r31,76(r1)
48041190:	38 21 00 50 	addi	r1,r1,80
48041194:	4e 80 00 20 	blr

48041198 <muxTask>:
48041198:	94 21 ff a0 	stwu	r1,-96(r1)
4804119c:	7c 08 02 a6 	mflr	r0
480411a0:	91 c1 00 18 	stw	r14,24(r1)
480411a4:	91 e1 00 1c 	stw	r15,28(r1)
480411a8:	92 01 00 20 	stw	r16,32(r1)
480411ac:	92 21 00 24 	stw	r17,36(r1)
480411b0:	92 41 00 28 	stw	r18,40(r1)
480411b4:	92 61 00 2c 	stw	r19,44(r1)
480411b8:	92 81 00 30 	stw	r20,48(r1)
480411bc:	92 a1 00 34 	stw	r21,52(r1)
480411c0:	92 c1 00 38 	stw	r22,56(r1)
480411c4:	92 e1 00 3c 	stw	r23,60(r1)
480411c8:	93 01 00 40 	stw	r24,64(r1)
480411cc:	93 21 00 44 	stw	r25,68(r1)
480411d0:	93 41 00 48 	stw	r26,72(r1)
480411d4:	93 61 00 4c 	stw	r27,76(r1)
480411d8:	93 81 00 50 	stw	r28,80(r1)
480411dc:	93 a1 00 54 	stw	r29,84(r1)
480411e0:	93 c1 00 58 	stw	r30,88(r1)
480411e4:	93 e1 00 5c 	stw	r31,92(r1)
480411e8:	90 01 00 64 	stw	r0,100(r1)
480411ec:	3d 20 48 04 	lis	r9,18436
480411f0:	80 09 44 14 	lwz	r0,17428(r9)
480411f4:	2c 00 00 00 	cmpwi	r0,0
480411f8:	41 82 00 24 	beq	4804121c <muxTask+0x84>
480411fc:	3d 20 48 04 	lis	r9,18436
48041200:	3d 60 48 04 	lis	r11,18436
48041204:	3c 60 48 04 	lis	r3,18436
48041208:	38 63 2c d0 	addi	r3,r3,11472
4804120c:	80 89 44 18 	lwz	r4,17432(r9)
48041210:	80 ab 44 40 	lwz	r5,17472(r11)
48041214:	4c c6 31 82 	crclr	4*cr1+eq
48041218:	48 00 32 99 	bl	480444b0 <errno+0x54>
4804121c:	38 60 00 00 	li	r3,0
48041220:	3d 20 48 04 	lis	r9,18436
48041224:	80 09 44 10 	lwz	r0,17424(r9)
48041228:	7c 03 00 00 	cmpw	r3,r0
4804122c:	40 80 03 70 	bge	4804159c <muxTask+0x404>
48041230:	3d 20 48 e4 	lis	r9,18660
48041234:	39 29 e9 f0 	addi	r9,r9,-5648
48041238:	7d 28 03 a6 	mtlr	r9
4804123c:	38 00 ff ff 	li	r0,-1
48041240:	7c 09 03 a6 	mtctr	r0
48041244:	3d c0 00 89 	lis	r14,137
48041248:	61 ce ab cd 	ori	r14,r14,43981
4804124c:	3d 20 48 04 	lis	r9,18436
48041250:	81 29 44 10 	lwz	r9,17424(r9)
48041254:	91 21 00 08 	stw	r9,8(r1)
48041258:	3d 20 48 04 	lis	r9,18436
4804125c:	83 69 43 f8 	lwz	r27,17400(r9)
48041260:	3d 20 48 04 	lis	r9,18436
48041264:	83 89 43 fc 	lwz	r28,17404(r9)
48041268:	54 60 10 3a 	rlwinm	r0,r3,2,0,29
4804126c:	7c 00 1a 14 	add	r0,r0,r3
48041270:	54 00 10 3a 	rlwinm	r0,r0,2,0,29
48041274:	7d 28 02 a6 	mflr	r9
48041278:	7c c0 4a 14 	add	r6,r0,r9
4804127c:	7d 29 02 a6 	mfctr	r9
48041280:	91 26 00 10 	stw	r9,16(r6)
48041284:	39 40 00 00 	li	r10,0
48041288:	7d 28 02 a6 	mflr	r9
4804128c:	7c 09 00 2e 	lwzx	r0,r9,r0
48041290:	7c 0a 00 00 	cmpw	r10,r0
48041294:	40 80 00 78 	bge	4804130c <muxTask+0x174>
48041298:	54 68 50 2a 	rlwinm	r8,r3,10,0,21
4804129c:	3d 20 49 26 	lis	r9,18726
480412a0:	3b e9 ee 50 	addi	r31,r9,-4528
480412a4:	3d 20 48 04 	lis	r9,18436
480412a8:	81 29 44 40 	lwz	r9,17472(r9)
480412ac:	38 89 00 01 	addi	r4,r9,1
480412b0:	54 65 90 1a 	rlwinm	r5,r3,18,0,13
480412b4:	3d 20 48 83 	lis	r9,18563
480412b8:	39 89 79 fc 	addi	r12,r9,31228
480412bc:	80 e6 00 00 	lwz	r7,0(r6)
480412c0:	55 49 30 32 	rlwinm	r9,r10,6,0,25
480412c4:	7d 29 fa 14 	add	r9,r9,r31
480412c8:	7d 68 4a 14 	add	r11,r8,r9
480412cc:	7d 28 48 2e 	lwzx	r9,r8,r9
480412d0:	80 0b 00 04 	lwz	r0,4(r11)
480412d4:	7c 09 00 00 	cmpw	r9,r0
480412d8:	40 82 00 0c 	bne	480412e4 <muxTask+0x14c>
480412dc:	90 8b 00 38 	stw	r4,56(r11)
480412e0:	48 00 00 20 	b	48041300 <muxTask+0x168>
480412e4:	80 0b 00 00 	lwz	r0,0(r11)
480412e8:	54 00 20 36 	rlwinm	r0,r0,4,0,27
480412ec:	55 49 70 22 	rlwinm	r9,r10,14,0,17
480412f0:	7c 00 4a 14 	add	r0,r0,r9
480412f4:	7c 00 2a 14 	add	r0,r0,r5
480412f8:	7c 0c 00 2e 	lwzx	r0,r12,r0
480412fc:	90 0b 00 38 	stw	r0,56(r11)
48041300:	39 4a 00 01 	addi	r10,r10,1
48041304:	7c 0a 38 00 	cmpw	r10,r7
48041308:	41 80 ff b8 	blt	480412c0 <muxTask+0x128>
4804130c:	3b e0 00 00 	li	r31,0
48041310:	3d 20 48 04 	lis	r9,18436
48041314:	81 89 44 18 	lwz	r12,17432(r9)
48041318:	80 06 00 04 	lwz	r0,4(r6)
4804131c:	7c 1f 00 00 	cmpw	r31,r0
48041320:	40 80 02 5c 	bge	4804157c <muxTask+0x3e4>
48041324:	3d 20 48 04 	lis	r9,18436
48041328:	81 29 44 40 	lwz	r9,17472(r9)
4804132c:	3b a9 00 01 	addi	r29,r9,1
48041330:	3d 60 48 04 	lis	r11,18436
48041334:	54 60 18 38 	rlwinm	r0,r3,3,0,28
48041338:	7c 00 1a 14 	add	r0,r0,r3
4804133c:	54 00 10 3a 	rlwinm	r0,r0,2,0,29
48041340:	7c 03 00 50 	subf	r0,r3,r0
48041344:	54 17 20 36 	rlwinm	r23,r0,4,0,27
48041348:	3d 20 48 06 	lis	r9,18438
4804134c:	39 e9 45 72 	addi	r15,r9,17778
48041350:	83 0b 44 54 	lwz	r24,17492(r11)
48041354:	3d 20 48 04 	lis	r9,18436
48041358:	3a 09 45 70 	addi	r16,r9,17776
4804135c:	3f 20 00 01 	lis	r25,1
48041360:	63 39 23 45 	ori	r25,r25,9029
48041364:	3d 20 49 24 	lis	r9,18724
48041368:	3b 49 ee 58 	addi	r26,r9,-4520
4804136c:	3d 20 48 e4 	lis	r9,18660
48041370:	3a 29 eb d0 	addi	r17,r9,-5168
48041374:	3e c0 48 04 	lis	r22,18436
48041378:	54 7e 50 2a 	rlwinm	r30,r3,10,0,21
4804137c:	3d 20 49 26 	lis	r9,18726
48041380:	3a 49 ee 50 	addi	r18,r9,-4528
48041384:	54 65 90 1a 	rlwinm	r5,r3,18,0,13
48041388:	3d 20 48 83 	lis	r9,18563
4804138c:	3a 69 79 f0 	addi	r19,r9,31216
48041390:	3d 20 48 83 	lis	r9,18563
48041394:	3a 89 79 f4 	addi	r20,r9,31220
48041398:	3d 20 48 83 	lis	r9,18563
4804139c:	3a a9 79 fc 	addi	r21,r9,31228
480413a0:	80 96 44 00 	lwz	r4,17408(r22)
480413a4:	80 06 00 10 	lwz	r0,16(r6)
480413a8:	2c 00 ff ff 	cmpwi	r0,-1
480413ac:	40 82 00 64 	bne	48041410 <muxTask+0x278>
480413b0:	93 a6 00 0c 	stw	r29,12(r6)
480413b4:	39 40 00 00 	li	r10,0
480413b8:	80 06 00 00 	lwz	r0,0(r6)
480413bc:	7c 0a 00 00 	cmpw	r10,r0
480413c0:	40 80 00 50 	bge	48041410 <muxTask+0x278>
480413c4:	54 67 50 2a 	rlwinm	r7,r3,10,0,21
480413c8:	3d 20 49 26 	lis	r9,18726
480413cc:	39 29 ee 50 	addi	r9,r9,-4528
480413d0:	7c 08 03 78 	mr	r8,r0
480413d4:	55 40 30 32 	rlwinm	r0,r10,6,0,25
480413d8:	7c 00 4a 14 	add	r0,r0,r9
480413dc:	7d 67 02 14 	add	r11,r7,r0
480413e0:	88 0b 00 08 	lbz	r0,8(r11)
480413e4:	2c 00 00 00 	cmpwi	r0,0
480413e8:	41 82 00 1c 	beq	48041404 <muxTask+0x26c>
480413ec:	81 6b 00 38 	lwz	r11,56(r11)
480413f0:	80 06 00 0c 	lwz	r0,12(r6)
480413f4:	7c 0b 00 40 	cmplw	r11,r0
480413f8:	40 80 00 0c 	bge	48041404 <muxTask+0x26c>
480413fc:	91 66 00 0c 	stw	r11,12(r6)
48041400:	91 46 00 10 	stw	r10,16(r6)
48041404:	39 4a 00 01 	addi	r10,r10,1
48041408:	7c 0a 40 00 	cmpw	r10,r8
4804140c:	41 80 ff c8 	blt	480413d4 <muxTask+0x23c>
48041410:	57 e0 10 3a 	rlwinm	r0,r31,2,0,29
48041414:	7c 00 ba 14 	add	r0,r0,r23
48041418:	7c 0f 02 2e 	lhzx	r0,r15,r0
4804141c:	7c 00 c2 14 	add	r0,r0,r24
48041420:	54 00 05 3e 	clrlwi	r0,r0,20
48041424:	54 09 08 3c 	rlwinm	r9,r0,1,0,30
48041428:	39 49 00 01 	addi	r10,r9,1
4804142c:	54 00 28 34 	rlwinm	r0,r0,5,0,26
48041430:	7d 00 82 14 	add	r8,r0,r16
48041434:	80 06 00 10 	lwz	r0,16(r6)
48041438:	2c 00 ff ff 	cmpwi	r0,-1
4804143c:	41 82 00 10 	beq	4804144c <muxTask+0x2b4>
48041440:	80 06 00 0c 	lwz	r0,12(r6)
48041444:	7d 2c 00 51 	subf.	r9,r12,r0
48041448:	40 81 00 18 	ble	48041460 <muxTask+0x2c8>
4804144c:	93 28 00 00 	stw	r25,0(r8)
48041450:	55 40 20 36 	rlwinm	r0,r10,4,0,27
48041454:	7e 3a 01 2e 	stwx	r17,r26,r0
48041458:	38 84 00 01 	addi	r4,r4,1
4804145c:	48 00 01 00 	b	4804155c <muxTask+0x3c4>
48041460:	81 26 00 10 	lwz	r9,16(r6)
48041464:	55 2b 30 32 	rlwinm	r11,r9,6,0,25
48041468:	7d 6b 92 14 	add	r11,r11,r18
4804146c:	7c fe 5a 14 	add	r7,r30,r11
48041470:	55 29 70 22 	rlwinm	r9,r9,14,0,17
48041474:	7d 29 9a 14 	add	r9,r9,r19
48041478:	7d 25 4a 14 	add	r9,r5,r9
4804147c:	7c 1e 58 2e 	lwzx	r0,r30,r11
48041480:	54 00 20 36 	rlwinm	r0,r0,4,0,27
48041484:	7d 29 02 14 	add	r9,r9,r0
48041488:	93 28 00 00 	stw	r25,0(r8)
4804148c:	a0 09 00 02 	lhz	r0,2(r9)
48041490:	90 08 00 04 	stw	r0,4(r8)
48041494:	88 09 00 00 	lbz	r0,0(r9)
48041498:	60 00 00 01 	ori	r0,r0,1
4804149c:	2c 00 00 00 	cmpwi	r0,0
480414a0:	41 82 00 28 	beq	480414c8 <muxTask+0x330>
480414a4:	3c 00 00 23 	lis	r0,35
480414a8:	60 00 45 67 	ori	r0,r0,17767
480414ac:	90 08 00 0c 	stw	r0,12(r8)
480414b0:	3c 00 00 45 	lis	r0,69
480414b4:	60 00 67 89 	ori	r0,r0,26505
480414b8:	90 08 00 10 	stw	r0,16(r8)
480414bc:	3c 00 00 67 	lis	r0,103
480414c0:	60 00 89 ab 	ori	r0,r0,35243
480414c4:	90 08 00 14 	stw	r0,20(r8)
480414c8:	91 c8 00 18 	stw	r14,24(r8)
480414cc:	91 c8 00 1c 	stw	r14,28(r8)
480414d0:	55 4a 20 36 	rlwinm	r10,r10,4,0,27
480414d4:	81 67 00 00 	lwz	r11,0(r7)
480414d8:	55 69 20 36 	rlwinm	r9,r11,4,0,27
480414dc:	80 06 00 10 	lwz	r0,16(r6)
480414e0:	54 00 70 22 	rlwinm	r0,r0,14,0,17
480414e4:	7d 29 02 14 	add	r9,r9,r0
480414e8:	7d 29 2a 14 	add	r9,r9,r5
480414ec:	7c 14 48 2e 	lwzx	r0,r20,r9
480414f0:	7c 1a 51 2e 	stwx	r0,r26,r10
480414f4:	39 6b 00 01 	addi	r11,r11,1
480414f8:	91 67 00 00 	stw	r11,0(r7)
480414fc:	28 0b 04 00 	cmplwi	r11,1024
48041500:	40 81 00 0c 	ble	4804150c <muxTask+0x374>
48041504:	38 00 00 00 	li	r0,0
48041508:	90 07 00 00 	stw	r0,0(r7)
4804150c:	81 27 00 00 	lwz	r9,0(r7)
48041510:	80 07 00 04 	lwz	r0,4(r7)
48041514:	7c 09 00 00 	cmpw	r9,r0
48041518:	40 82 00 0c 	bne	48041524 <muxTask+0x38c>
4804151c:	93 a7 00 38 	stw	r29,56(r7)
48041520:	48 00 00 24 	b	48041544 <muxTask+0x3ac>
48041524:	80 07 00 00 	lwz	r0,0(r7)
48041528:	54 00 20 36 	rlwinm	r0,r0,4,0,27
4804152c:	81 26 00 10 	lwz	r9,16(r6)
48041530:	55 29 70 22 	rlwinm	r9,r9,14,0,17
48041534:	7c 00 4a 14 	add	r0,r0,r9
48041538:	7c 00 2a 14 	add	r0,r0,r5
4804153c:	7c 15 00 2e 	lwzx	r0,r21,r0
48041540:	90 07 00 38 	stw	r0,56(r7)
48041544:	81 27 00 3c 	lwz	r9,60(r7)
48041548:	39 29 00 01 	addi	r9,r9,1
4804154c:	91 27 00 3c 	stw	r9,60(r7)
48041550:	3b 7b 00 01 	addi	r27,r27,1
48041554:	7c 09 02 a6 	mfctr	r0
48041558:	90 06 00 10 	stw	r0,16(r6)
4804155c:	3b 9c 00 01 	addi	r28,r28,1
48041560:	3b ff 00 01 	addi	r31,r31,1
48041564:	80 06 00 08 	lwz	r0,8(r6)
48041568:	7d 8c 02 14 	add	r12,r12,r0
4804156c:	80 06 00 04 	lwz	r0,4(r6)
48041570:	7c 1f 00 00 	cmpw	r31,r0
48041574:	41 80 fe 30 	blt	480413a4 <muxTask+0x20c>
48041578:	90 96 44 00 	stw	r4,17408(r22)
4804157c:	38 63 00 01 	addi	r3,r3,1
48041580:	81 21 00 08 	lwz	r9,8(r1)
48041584:	7c 03 48 00 	cmpw	r3,r9
48041588:	41 80 fc e0 	blt	48041268 <muxTask+0xd0>
4804158c:	3d 20 48 04 	lis	r9,18436
48041590:	93 89 43 fc 	stw	r28,17404(r9)
48041594:	3d 20 48 04 	lis	r9,18436
48041598:	93 69 43 f8 	stw	r27,17400(r9)
4804159c:	3d 60 48 04 	lis	r11,18436
480415a0:	3d 20 48 04 	lis	r9,18436
480415a4:	80 0b 44 54 	lwz	r0,17492(r11)
480415a8:	81 29 44 28 	lwz	r9,17448(r9)
480415ac:	7c 00 4a 14 	add	r0,r0,r9
480415b0:	90 0b 44 54 	stw	r0,17492(r11)
480415b4:	80 01 00 64 	lwz	r0,100(r1)
480415b8:	7c 08 03 a6 	mtlr	r0
480415bc:	81 c1 00 18 	lwz	r14,24(r1)
480415c0:	81 e1 00 1c 	lwz	r15,28(r1)
480415c4:	82 01 00 20 	lwz	r16,32(r1)
480415c8:	82 21 00 24 	lwz	r17,36(r1)
480415cc:	82 41 00 28 	lwz	r18,40(r1)
480415d0:	82 61 00 2c 	lwz	r19,44(r1)
480415d4:	82 81 00 30 	lwz	r20,48(r1)
480415d8:	82 a1 00 34 	lwz	r21,52(r1)
480415dc:	82 c1 00 38 	lwz	r22,56(r1)
480415e0:	82 e1 00 3c 	lwz	r23,60(r1)
480415e4:	83 01 00 40 	lwz	r24,64(r1)
480415e8:	83 21 00 44 	lwz	r25,68(r1)
480415ec:	83 41 00 48 	lwz	r26,72(r1)
480415f0:	83 61 00 4c 	lwz	r27,76(r1)
480415f4:	83 81 00 50 	lwz	r28,80(r1)
480415f8:	83 a1 00 54 	lwz	r29,84(r1)
480415fc:	83 c1 00 58 	lwz	r30,88(r1)
48041600:	83 e1 00 5c 	lwz	r31,92(r1)
48041604:	38 21 00 60 	addi	r1,r1,96
48041608:	4e 80 00 20 	blr

4804160c <main>:
4804160c:	94 21 ff 50 	stwu	r1,-176(r1)
48041610:	7c 08 02 a6 	mflr	r0
48041614:	db e1 00 a8 	stfd	f31,168(r1)
48041618:	91 c1 00 60 	stw	r14,96(r1)
4804161c:	91 e1 00 64 	stw	r15,100(r1)
48041620:	92 01 00 68 	stw	r16,104(r1)
48041624:	92 21 00 6c 	stw	r17,108(r1)
48041628:	92 41 00 70 	stw	r18,112(r1)
4804162c:	92 61 00 74 	stw	r19,116(r1)
48041630:	92 81 00 78 	stw	r20,120(r1)
48041634:	92 a1 00 7c 	stw	r21,124(r1)
48041638:	92 c1 00 80 	stw	r22,128(r1)
4804163c:	92 e1 00 84 	stw	r23,132(r1)
48041640:	93 01 00 88 	stw	r24,136(r1)
48041644:	93 21 00 8c 	stw	r25,140(r1)
48041648:	93 41 00 90 	stw	r26,144(r1)
4804164c:	93 61 00 94 	stw	r27,148(r1)
48041650:	93 81 00 98 	stw	r28,152(r1)
48041654:	93 a1 00 9c 	stw	r29,156(r1)
48041658:	93 c1 00 a0 	stw	r30,160(r1)
4804165c:	93 e1 00 a4 	stw	r31,164(r1)
48041660:	90 01 00 b4 	stw	r0,180(r1)
48041664:	7c 60 1b 78 	mr	r0,r3
48041668:	7c 85 23 78 	mr	r5,r4
4804166c:	2c 00 00 01 	cmpwi	r0,1
48041670:	40 81 00 14 	ble	48041684 <main+0x78>
48041674:	38 61 00 08 	addi	r3,r1,8
48041678:	7c 04 03 78 	mr	r4,r0
4804167c:	48 00 08 2d 	bl	48041ea8 <beginParam>
48041680:	48 00 00 14 	b	48041694 <main+0x88>
48041684:	38 61 00 08 	addi	r3,r1,8
48041688:	3c 80 48 04 	lis	r4,18436
4804168c:	38 84 2c e4 	addi	r4,r4,11492
48041690:	48 00 09 e5 	bl	48042074 <readParam>
48041694:	38 61 00 08 	addi	r3,r1,8
48041698:	3c 80 48 04 	lis	r4,18436
4804169c:	38 84 2c f0 	addi	r4,r4,11504
480416a0:	3c a0 49 24 	lis	r5,18724
480416a4:	38 a5 ed d0 	addi	r5,r5,-4656
480416a8:	3c c0 48 04 	lis	r6,18436
480416ac:	38 c6 2d 00 	addi	r6,r6,11520
480416b0:	48 00 0d 75 	bl	48042424 <getStringParam>
480416b4:	38 61 00 08 	addi	r3,r1,8
480416b8:	3c 80 48 04 	lis	r4,18436
480416bc:	38 84 2d 08 	addi	r4,r4,11528
480416c0:	3c a0 48 04 	lis	r5,18436
480416c4:	38 a5 44 08 	addi	r5,r5,17416
480416c8:	38 c0 04 00 	li	r6,1024
480416cc:	48 00 0b 11 	bl	480421dc <getIntParam>
480416d0:	38 61 00 08 	addi	r3,r1,8
480416d4:	3c 80 48 04 	lis	r4,18436
480416d8:	38 84 2d 1c 	addi	r4,r4,11548
480416dc:	3c a0 48 04 	lis	r5,18436
480416e0:	38 a5 44 50 	addi	r5,r5,17488
480416e4:	38 c0 00 0a 	li	r6,10
480416e8:	48 00 0a f5 	bl	480421dc <getIntParam>
480416ec:	38 61 00 08 	addi	r3,r1,8
480416f0:	3c 80 48 04 	lis	r4,18436
480416f4:	38 84 2d 30 	addi	r4,r4,11568
480416f8:	3c a0 48 04 	lis	r5,18436
480416fc:	38 a5 44 58 	addi	r5,r5,17496
48041700:	38 c0 00 0a 	li	r6,10
48041704:	48 00 0a d9 	bl	480421dc <getIntParam>
48041708:	38 61 00 08 	addi	r3,r1,8
4804170c:	3c 80 48 04 	lis	r4,18436
48041710:	38 84 2d 58 	addi	r4,r4,11608
48041714:	3c a0 48 04 	lis	r5,18436
48041718:	38 a5 44 14 	addi	r5,r5,17428
4804171c:	38 c0 00 00 	li	r6,0
48041720:	48 00 0a bd 	bl	480421dc <getIntParam>
48041724:	38 61 00 08 	addi	r3,r1,8
48041728:	3c 80 48 04 	lis	r4,18436
4804172c:	38 84 2d 60 	addi	r4,r4,11616
48041730:	3c a0 48 04 	lis	r5,18436
48041734:	38 a5 44 10 	addi	r5,r5,17424
48041738:	38 c0 00 18 	li	r6,24
4804173c:	48 00 0a a1 	bl	480421dc <getIntParam>
48041740:	3d 20 48 04 	lis	r9,18436
48041744:	80 09 44 34 	lwz	r0,17460(r9)
48041748:	2c 00 00 18 	cmpwi	r0,24
4804174c:	41 81 00 58 	bgt	480417a4 <main+0x198>
48041750:	38 61 00 08 	addi	r3,r1,8
48041754:	3c 80 48 04 	lis	r4,18436
48041758:	38 84 2d 88 	addi	r4,r4,11656
4804175c:	3c a0 48 04 	lis	r5,18436
48041760:	38 a5 44 2c 	addi	r5,r5,17452
48041764:	3c c0 02 50 	lis	r6,592
48041768:	60 c6 34 4c 	ori	r6,r6,13388
4804176c:	48 00 0a 71 	bl	480421dc <getIntParam>
48041770:	38 61 00 08 	addi	r3,r1,8
48041774:	3c 80 48 04 	lis	r4,18436
48041778:	38 84 2d 98 	addi	r4,r4,11672
4804177c:	3f a0 48 04 	lis	r29,18436
48041780:	38 bd 44 34 	addi	r5,r29,17460
48041784:	38 c0 00 02 	li	r6,2
48041788:	48 00 0a 55 	bl	480421dc <getIntParam>
4804178c:	80 1d 44 34 	lwz	r0,17460(r29)
48041790:	2c 00 01 80 	cmpwi	r0,384
48041794:	40 81 00 28 	ble	480417bc <main+0x1b0>
48041798:	3c 60 48 04 	lis	r3,18436
4804179c:	38 63 2d b4 	addi	r3,r3,11700
480417a0:	48 00 00 0c 	b	480417ac <main+0x1a0>
480417a4:	3c 60 48 04 	lis	r3,18436
480417a8:	38 63 2d 70 	addi	r3,r3,11632
480417ac:	4c c6 31 82 	crclr	4*cr1+eq
480417b0:	48 00 2d 01 	bl	480444b0 <errno+0x54>
480417b4:	38 60 00 01 	li	r3,1
480417b8:	48 00 05 b0 	b	48041d68 <main+0x75c>
480417bc:	3a c0 00 00 	li	r22,0
480417c0:	3d 20 48 04 	lis	r9,18436
480417c4:	80 09 44 34 	lwz	r0,17460(r9)
480417c8:	7c 16 00 00 	cmpw	r22,r0
480417cc:	40 80 01 68 	bge	48041934 <main+0x328>
480417d0:	3a 41 00 18 	addi	r18,r1,24
480417d4:	3d 20 48 e4 	lis	r9,18660
480417d8:	3a 09 b9 f0 	addi	r16,r9,-17936
480417dc:	3d 20 48 e4 	lis	r9,18660
480417e0:	3a 29 b9 f4 	addi	r17,r9,-17932
480417e4:	7e 43 93 78 	mr	r3,r18
480417e8:	3c 80 48 04 	lis	r4,18436
480417ec:	38 84 2d d4 	addi	r4,r4,11732
480417f0:	7e c5 b3 78 	mr	r5,r22
480417f4:	4c c6 31 82 	crclr	4*cr1+eq
480417f8:	48 00 2d 09 	bl	48044500 <errno+0xa4>
480417fc:	38 61 00 08 	addi	r3,r1,8
48041800:	3c 80 48 04 	lis	r4,18436
48041804:	38 84 2d e0 	addi	r4,r4,11744
48041808:	48 00 09 91 	bl	48042198 <commentParam>
4804180c:	38 61 00 08 	addi	r3,r1,8
48041810:	7e 44 93 78 	mr	r4,r18
48041814:	48 00 09 85 	bl	48042198 <commentParam>
48041818:	56 dd 28 34 	rlwinm	r29,r22,5,0,26
4804181c:	38 61 00 08 	addi	r3,r1,8
48041820:	3c 80 48 04 	lis	r4,18436
48041824:	38 84 2d e4 	addi	r4,r4,11748
48041828:	7c bd 82 14 	add	r5,r29,r16
4804182c:	38 c0 10 00 	li	r6,4096
48041830:	48 00 09 ad 	bl	480421dc <getIntParam>
48041834:	38 61 00 08 	addi	r3,r1,8
48041838:	3c 80 48 04 	lis	r4,18436
4804183c:	38 84 2e 00 	addi	r4,r4,11776
48041840:	7c bd 8a 14 	add	r5,r29,r17
48041844:	38 c0 00 02 	li	r6,2
48041848:	48 00 09 95 	bl	480421dc <getIntParam>
4804184c:	7c 11 e8 2e 	lwzx	r0,r17,r29
48041850:	2c 00 00 04 	cmpwi	r0,4
48041854:	41 81 ff 50 	bgt	480417a4 <main+0x198>
48041858:	3b a0 00 00 	li	r29,0
4804185c:	56 c0 28 34 	rlwinm	r0,r22,5,0,26
48041860:	7c 11 00 2e 	lwzx	r0,r17,r0
48041864:	7c 1d 00 00 	cmpw	r29,r0
48041868:	40 80 00 b8 	bge	48041920 <main+0x314>
4804186c:	3b 21 00 38 	addi	r25,r1,56
48041870:	3e 60 48 04 	lis	r19,18436
48041874:	3b 41 00 3c 	addi	r26,r1,60
48041878:	3e 80 48 04 	lis	r20,18436
4804187c:	3b 61 00 40 	addi	r27,r1,64
48041880:	3e a0 48 04 	lis	r21,18436
48041884:	3d 20 48 e4 	lis	r9,18660
48041888:	3b e9 b9 f0 	addi	r31,r9,-17936
4804188c:	56 dc 28 34 	rlwinm	r28,r22,5,0,26
48041890:	3d 20 48 e4 	lis	r9,18660
48041894:	3a e9 b9 f8 	addi	r23,r9,-17928
48041898:	3d 20 48 e4 	lis	r9,18660
4804189c:	3b 09 b9 fa 	addi	r24,r9,-17926
480418a0:	3d 20 48 e4 	lis	r9,18660
480418a4:	3b c9 b9 f4 	addi	r30,r9,-17932
480418a8:	38 61 00 08 	addi	r3,r1,8
480418ac:	38 93 2e 10 	addi	r4,r19,11792
480418b0:	7f 25 cb 78 	mr	r5,r25
480418b4:	38 c0 00 10 	li	r6,16
480418b8:	48 00 09 25 	bl	480421dc <getIntParam>
480418bc:	38 61 00 08 	addi	r3,r1,8
480418c0:	38 94 2e 1c 	addi	r4,r20,11804
480418c4:	7f 45 d3 78 	mr	r5,r26
480418c8:	38 c0 00 10 	li	r6,16
480418cc:	48 00 09 11 	bl	480421dc <getIntParam>
480418d0:	38 61 00 08 	addi	r3,r1,8
480418d4:	38 95 2e 28 	addi	r4,r21,11816
480418d8:	7f 65 db 78 	mr	r5,r27
480418dc:	38 c0 00 01 	li	r6,1
480418e0:	48 00 08 fd 	bl	480421dc <getIntParam>
480418e4:	57 a9 10 3a 	rlwinm	r9,r29,2,0,29
480418e8:	7d 29 ea 14 	add	r9,r9,r29
480418ec:	7d 29 ea 14 	add	r9,r9,r29
480418f0:	7d 29 e2 14 	add	r9,r9,r28
480418f4:	a0 19 00 02 	lhz	r0,2(r25)
480418f8:	7c 17 4b 2e 	sthx	r0,r23,r9
480418fc:	a0 1a 00 02 	lhz	r0,2(r26)
48041900:	7c 18 4b 2e 	sthx	r0,r24,r9
48041904:	7d 29 fa 14 	add	r9,r9,r31
48041908:	88 1b 00 03 	lbz	r0,3(r27)
4804190c:	98 09 00 0c 	stb	r0,12(r9)
48041910:	3b bd 00 01 	addi	r29,r29,1
48041914:	7c 1e e0 2e 	lwzx	r0,r30,r28
48041918:	7c 1d 00 00 	cmpw	r29,r0
4804191c:	41 80 ff 8c 	blt	480418a8 <main+0x29c>
48041920:	3a d6 00 01 	addi	r22,r22,1
48041924:	3d 20 48 04 	lis	r9,18436
48041928:	80 09 44 34 	lwz	r0,17460(r9)
4804192c:	7c 16 00 00 	cmpw	r22,r0
48041930:	41 80 fe b4 	blt	480417e4 <main+0x1d8>
48041934:	38 61 00 08 	addi	r3,r1,8
48041938:	48 00 07 c1 	bl	480420f8 <endParam>
4804193c:	4b ff ed 35 	bl	48040670 <init>
48041940:	3d 60 48 04 	lis	r11,18436
48041944:	3d 20 48 04 	lis	r9,18436
48041948:	81 29 44 50 	lwz	r9,17488(r9)
4804194c:	91 2b 44 1c 	stw	r9,17436(r11)
48041950:	3d 60 48 04 	lis	r11,18436
48041954:	3d 29 ff d7 	addis	r9,r9,-41
48041958:	39 29 cd 20 	addi	r9,r9,-13024
4804195c:	91 2b 44 40 	stw	r9,17472(r11)
48041960:	3a c0 00 00 	li	r22,0
48041964:	3d 20 48 04 	lis	r9,18436
48041968:	80 09 44 58 	lwz	r0,17496(r9)
4804196c:	7c 16 00 00 	cmpw	r22,r0
48041970:	40 80 01 bc 	bge	48041b2c <main+0x520>
48041974:	3d c0 48 04 	lis	r14,18436
48041978:	3e 00 48 04 	lis	r16,18436
4804197c:	3d e0 48 04 	lis	r15,18436
48041980:	3e 20 48 04 	lis	r17,18436
48041984:	3a e1 00 48 	addi	r23,r1,72
48041988:	3b 01 00 50 	addi	r24,r1,80
4804198c:	3e 40 48 04 	lis	r18,18436
48041990:	3e 60 48 04 	lis	r19,18436
48041994:	3d 20 48 04 	lis	r9,18436
48041998:	80 09 44 14 	lwz	r0,17428(r9)
4804199c:	2c 00 00 00 	cmpwi	r0,0
480419a0:	41 82 00 f4 	beq	48041a94 <main+0x488>
480419a4:	3c 60 48 04 	lis	r3,18436
480419a8:	38 63 2e 4c 	addi	r3,r3,11852
480419ac:	7e c4 b3 78 	mr	r4,r22
480419b0:	4c c6 31 82 	crclr	4*cr1+eq
480419b4:	48 00 2a fd 	bl	480444b0 <errno+0x54>
480419b8:	3b 80 00 00 	li	r28,0
480419bc:	3d 20 48 04 	lis	r9,18436
480419c0:	80 09 44 10 	lwz	r0,17424(r9)
480419c4:	7c 1c 00 00 	cmpw	r28,r0
480419c8:	40 80 00 a4 	bge	48041a6c <main+0x460>
480419cc:	3d 20 48 e4 	lis	r9,18660
480419d0:	3a 89 e9 f0 	addi	r20,r9,-5648
480419d4:	3e a0 48 04 	lis	r21,18436
480419d8:	3b a0 00 00 	li	r29,0
480419dc:	57 80 10 3a 	rlwinm	r0,r28,2,0,29
480419e0:	7c 00 e2 14 	add	r0,r0,r28
480419e4:	54 00 10 3a 	rlwinm	r0,r0,2,0,29
480419e8:	7c 14 00 2e 	lwzx	r0,r20,r0
480419ec:	7c 1d 00 00 	cmpw	r29,r0
480419f0:	40 80 00 6c 	bge	48041a5c <main+0x450>
480419f4:	57 9b 50 2a 	rlwinm	r27,r28,10,0,21
480419f8:	3d 20 49 26 	lis	r9,18726
480419fc:	3b c9 ee 50 	addi	r30,r9,-4528
48041a00:	3f e0 48 04 	lis	r31,18436
48041a04:	3d 20 48 e4 	lis	r9,18660
48041a08:	3b 29 e9 f0 	addi	r25,r9,-5648
48041a0c:	57 80 10 3a 	rlwinm	r0,r28,2,0,29
48041a10:	7c 00 e2 14 	add	r0,r0,r28
48041a14:	54 1a 10 3a 	rlwinm	r26,r0,2,0,29
48041a18:	57 a0 30 32 	rlwinm	r0,r29,6,0,25
48041a1c:	7d 60 f2 14 	add	r11,r0,r30
48041a20:	7d 3b 5a 14 	add	r9,r27,r11
48041a24:	88 09 00 08 	lbz	r0,8(r9)
48041a28:	2c 00 00 00 	cmpwi	r0,0
48041a2c:	41 82 00 20 	beq	48041a4c <main+0x440>
48041a30:	38 7f 2e 5c 	addi	r3,r31,11868
48041a34:	7f 84 e3 78 	mr	r4,r28
48041a38:	7f a5 eb 78 	mr	r5,r29
48041a3c:	7c db 58 2e 	lwzx	r6,r27,r11
48041a40:	80 e9 00 04 	lwz	r7,4(r9)
48041a44:	4c c6 31 82 	crclr	4*cr1+eq
48041a48:	48 00 2a 69 	bl	480444b0 <errno+0x54>
48041a4c:	3b bd 00 01 	addi	r29,r29,1
48041a50:	7c 19 d0 2e 	lwzx	r0,r25,r26
48041a54:	7c 1d 00 00 	cmpw	r29,r0
48041a58:	41 80 ff c0 	blt	48041a18 <main+0x40c>
48041a5c:	3b 9c 00 01 	addi	r28,r28,1
48041a60:	80 15 44 10 	lwz	r0,17424(r21)
48041a64:	7c 1c 00 00 	cmpw	r28,r0
48041a68:	41 80 ff 70 	blt	480419d8 <main+0x3cc>
48041a6c:	3d 20 48 04 	lis	r9,18436
48041a70:	3d 60 48 04 	lis	r11,18436
48041a74:	3d 40 48 04 	lis	r10,18436
48041a78:	3c 60 48 04 	lis	r3,18436
48041a7c:	38 63 2e 80 	addi	r3,r3,11904
48041a80:	80 89 44 20 	lwz	r4,17440(r9)
48041a84:	80 ab 44 4c 	lwz	r5,17484(r11)
48041a88:	80 ca 44 54 	lwz	r6,17492(r10)
48041a8c:	4c c6 31 82 	crclr	4*cr1+eq
48041a90:	48 00 2a 21 	bl	480444b0 <errno+0x54>
48041a94:	81 30 44 1c 	lwz	r9,17436(r16)
48041a98:	91 2e 44 24 	stw	r9,17444(r14)
48041a9c:	3d 29 00 02 	addis	r9,r9,2
48041aa0:	39 29 a5 e0 	addi	r9,r9,-23072
48041aa4:	91 30 44 1c 	stw	r9,17436(r16)
48041aa8:	81 31 44 40 	lwz	r9,17472(r17)
48041aac:	91 2f 44 18 	stw	r9,17432(r15)
48041ab0:	3d 29 00 02 	addis	r9,r9,2
48041ab4:	39 29 a5 e0 	addi	r9,r9,-23072
48041ab8:	91 31 44 40 	stw	r9,17472(r17)
48041abc:	4b ff f1 e5 	bl	48040ca0 <inputHwSim>
48041ac0:	7e e3 bb 78 	mr	r3,r23
48041ac4:	48 00 0e 89 	bl	4804294c <get_time>
48041ac8:	4b ff f3 35 	bl	48040dfc <inputTask>
48041acc:	7f 03 c3 78 	mr	r3,r24
48041ad0:	48 00 0e 7d 	bl	4804294c <get_time>
48041ad4:	7e e3 bb 78 	mr	r3,r23
48041ad8:	7f 04 c3 78 	mr	r4,r24
48041adc:	48 00 0e 91 	bl	4804296c <get_time_diff>
48041ae0:	c8 12 43 d0 	lfd	f0,17360(r18)
48041ae4:	fc 21 00 2a 	fadd	f1,f1,f0
48041ae8:	d8 32 43 d0 	stfd	f1,17360(r18)
48041aec:	7e e3 bb 78 	mr	r3,r23
48041af0:	48 00 0e 5d 	bl	4804294c <get_time>
48041af4:	4b ff f6 a5 	bl	48041198 <muxTask>
48041af8:	7f 03 c3 78 	mr	r3,r24
48041afc:	48 00 0e 51 	bl	4804294c <get_time>
48041b00:	7e e3 bb 78 	mr	r3,r23
48041b04:	7f 04 c3 78 	mr	r4,r24
48041b08:	48 00 0e 65 	bl	4804296c <get_time_diff>
48041b0c:	c8 13 43 d8 	lfd	f0,17368(r19)
48041b10:	fc 21 00 2a 	fadd	f1,f1,f0
48041b14:	d8 33 43 d8 	stfd	f1,17368(r19)
48041b18:	3a d6 00 01 	addi	r22,r22,1
48041b1c:	3d 20 48 04 	lis	r9,18436
48041b20:	80 09 44 58 	lwz	r0,17496(r9)
48041b24:	7c 16 00 00 	cmpw	r22,r0
48041b28:	41 80 fe 6c 	blt	48041994 <main+0x388>
48041b2c:	3f 20 48 04 	lis	r25,18436
48041b30:	3f 60 48 04 	lis	r27,18436
48041b34:	3f 40 48 04 	lis	r26,18436
48041b38:	c8 3b 43 d0 	lfd	f1,17360(r27)
48041b3c:	c8 5a 43 d8 	lfd	f2,17368(r26)
48041b40:	fc 61 10 2a 	fadd	f3,f1,f2
48041b44:	d8 79 43 e0 	stfd	f3,17376(r25)
48041b48:	3c 60 48 04 	lis	r3,18436
48041b4c:	38 63 2e b0 	addi	r3,r3,11952
48041b50:	4c c6 32 42 	crset	4*cr1+eq
48041b54:	48 00 29 5d 	bl	480444b0 <errno+0x54>
48041b58:	3f 80 48 04 	lis	r28,18436
48041b5c:	80 9c 43 f4 	lwz	r4,17396(r28)
48041b60:	3f a0 43 30 	lis	r29,17200
48041b64:	3d 20 48 04 	lis	r9,18436
48041b68:	39 29 2f b0 	addi	r9,r9,12208
48041b6c:	cb e9 00 00 	lfd	f31,0(r9)
48041b70:	6c 80 80 00 	xoris	r0,r4,32768
48041b74:	90 01 00 5c 	stw	r0,92(r1)
48041b78:	93 a1 00 58 	stw	r29,88(r1)
48041b7c:	c8 01 00 58 	lfd	f0,88(r1)
48041b80:	fc 00 f8 28 	fsub	f0,f0,f31
48041b84:	c8 3b 43 d0 	lfd	f1,17360(r27)
48041b88:	3c 60 48 04 	lis	r3,18436
48041b8c:	38 63 2e c4 	addi	r3,r3,11972
48041b90:	fc 21 00 24 	fdiv	f1,f1,f0
48041b94:	4c c6 32 42 	crset	4*cr1+eq
48041b98:	48 00 29 19 	bl	480444b0 <errno+0x54>
48041b9c:	3f 60 48 04 	lis	r27,18436
48041ba0:	80 1c 43 f4 	lwz	r0,17396(r28)
48041ba4:	6c 0b 80 00 	xoris	r11,r0,32768
48041ba8:	91 61 00 5c 	stw	r11,92(r1)
48041bac:	93 a1 00 58 	stw	r29,88(r1)
48041bb0:	c8 01 00 58 	lfd	f0,88(r1)
48041bb4:	fc 00 f8 28 	fsub	f0,f0,f31
48041bb8:	c8 3a 43 d8 	lfd	f1,17368(r26)
48041bbc:	3c 60 48 04 	lis	r3,18436
48041bc0:	38 63 2e e0 	addi	r3,r3,12000
48041bc4:	80 9b 43 f8 	lwz	r4,17400(r27)
48041bc8:	fc 21 00 24 	fdiv	f1,f1,f0
48041bcc:	4c c6 32 42 	crset	4*cr1+eq
48041bd0:	48 00 28 e1 	bl	480444b0 <errno+0x54>
48041bd4:	80 1c 43 f4 	lwz	r0,17396(r28)
48041bd8:	6c 0b 80 00 	xoris	r11,r0,32768
48041bdc:	91 61 00 5c 	stw	r11,92(r1)
48041be0:	93 a1 00 58 	stw	r29,88(r1)
48041be4:	c8 01 00 58 	lfd	f0,88(r1)
48041be8:	fc 00 f8 28 	fsub	f0,f0,f31
48041bec:	c8 39 43 e0 	lfd	f1,17376(r25)
48041bf0:	3c 60 48 04 	lis	r3,18436
48041bf4:	38 63 2e fc 	addi	r3,r3,12028
48041bf8:	80 9b 43 f8 	lwz	r4,17400(r27)
48041bfc:	fc 21 00 24 	fdiv	f1,f1,f0
48041c00:	4c c6 32 42 	crset	4*cr1+eq
48041c04:	48 00 28 ad 	bl	480444b0 <errno+0x54>
48041c08:	3d 20 48 04 	lis	r9,18436
48041c0c:	80 09 44 14 	lwz	r0,17428(r9)
48041c10:	2c 00 00 00 	cmpwi	r0,0
48041c14:	41 82 00 d8 	beq	48041cec <main+0x6e0>
48041c18:	3c 60 48 04 	lis	r3,18436
48041c1c:	38 63 2f 14 	addi	r3,r3,12052
48041c20:	4c c6 31 82 	crclr	4*cr1+eq
48041c24:	48 00 28 8d 	bl	480444b0 <errno+0x54>
48041c28:	3b 80 00 00 	li	r28,0
48041c2c:	3d 20 48 04 	lis	r9,18436
48041c30:	80 09 44 10 	lwz	r0,17424(r9)
48041c34:	7c 1c 00 00 	cmpw	r28,r0
48041c38:	40 80 00 b4 	bge	48041cec <main+0x6e0>
48041c3c:	3e c0 48 04 	lis	r22,18436
48041c40:	3d 20 48 e4 	lis	r9,18660
48041c44:	3a e9 e9 f0 	addi	r23,r9,-5648
48041c48:	3f 00 48 04 	lis	r24,18436
48041c4c:	38 76 2f 24 	addi	r3,r22,12068
48041c50:	7f 84 e3 78 	mr	r4,r28
48041c54:	4c c6 31 82 	crclr	4*cr1+eq
48041c58:	48 00 28 59 	bl	480444b0 <errno+0x54>
48041c5c:	3b a0 00 00 	li	r29,0
48041c60:	57 80 10 3a 	rlwinm	r0,r28,2,0,29
48041c64:	7c 00 e2 14 	add	r0,r0,r28
48041c68:	54 00 10 3a 	rlwinm	r0,r0,2,0,29
48041c6c:	7c 17 00 2e 	lwzx	r0,r23,r0
48041c70:	7c 1d 00 00 	cmpw	r29,r0
48041c74:	40 80 00 68 	bge	48041cdc <main+0x6d0>
48041c78:	57 9a 50 2a 	rlwinm	r26,r28,10,0,21
48041c7c:	3d 20 49 26 	lis	r9,18726
48041c80:	3b 29 ee 50 	addi	r25,r9,-4528
48041c84:	3f c0 48 04 	lis	r30,18436
48041c88:	3d 20 48 e4 	lis	r9,18660
48041c8c:	3b e9 e9 f0 	addi	r31,r9,-5648
48041c90:	57 80 10 3a 	rlwinm	r0,r28,2,0,29
48041c94:	7c 00 e2 14 	add	r0,r0,r28
48041c98:	54 1b 10 3a 	rlwinm	r27,r0,2,0,29
48041c9c:	57 a0 30 32 	rlwinm	r0,r29,6,0,25
48041ca0:	7c 00 ca 14 	add	r0,r0,r25
48041ca4:	7d 3a 02 14 	add	r9,r26,r0
48041ca8:	88 09 00 08 	lbz	r0,8(r9)
48041cac:	2c 00 00 00 	cmpwi	r0,0
48041cb0:	41 82 00 1c 	beq	48041ccc <main+0x6c0>
48041cb4:	38 7e 2f 30 	addi	r3,r30,12080
48041cb8:	7f a4 eb 78 	mr	r4,r29
48041cbc:	80 a9 00 24 	lwz	r5,36(r9)
48041cc0:	80 c9 00 3c 	lwz	r6,60(r9)
48041cc4:	4c c6 31 82 	crclr	4*cr1+eq
48041cc8:	48 00 27 e9 	bl	480444b0 <errno+0x54>
48041ccc:	3b bd 00 01 	addi	r29,r29,1
48041cd0:	7c 1f d8 2e 	lwzx	r0,r31,r27
48041cd4:	7c 1d 00 00 	cmpw	r29,r0
48041cd8:	41 80 ff c4 	blt	48041c9c <main+0x690>
48041cdc:	3b 9c 00 01 	addi	r28,r28,1
48041ce0:	80 18 44 10 	lwz	r0,17424(r24)
48041ce4:	7c 1c 00 00 	cmpw	r28,r0
48041ce8:	41 80 ff 64 	blt	48041c4c <main+0x640>
48041cec:	3c 60 48 04 	lis	r3,18436
48041cf0:	38 63 2f 4c 	addi	r3,r3,12108
48041cf4:	4c c6 31 82 	crclr	4*cr1+eq
48041cf8:	48 00 27 b9 	bl	480444b0 <errno+0x54>
48041cfc:	3d 20 48 04 	lis	r9,18436
48041d00:	3d 60 48 04 	lis	r11,18436
48041d04:	3c 60 48 04 	lis	r3,18436
48041d08:	38 63 2f 58 	addi	r3,r3,12120
48041d0c:	80 89 43 f4 	lwz	r4,17396(r9)
48041d10:	80 ab 44 04 	lwz	r5,17412(r11)
48041d14:	4c c6 31 82 	crclr	4*cr1+eq
48041d18:	48 00 27 99 	bl	480444b0 <errno+0x54>
48041d1c:	3d 20 48 04 	lis	r9,18436
48041d20:	3c 60 48 04 	lis	r3,18436
48041d24:	38 63 2f 74 	addi	r3,r3,12148
48041d28:	80 89 43 f8 	lwz	r4,17400(r9)
48041d2c:	4c c6 31 82 	crclr	4*cr1+eq
48041d30:	48 00 27 81 	bl	480444b0 <errno+0x54>
48041d34:	3d 20 48 04 	lis	r9,18436
48041d38:	3c 60 48 04 	lis	r3,18436
48041d3c:	38 63 2f 88 	addi	r3,r3,12168
48041d40:	80 89 44 00 	lwz	r4,17408(r9)
48041d44:	4c c6 31 82 	crclr	4*cr1+eq
48041d48:	48 00 27 69 	bl	480444b0 <errno+0x54>
48041d4c:	3d 20 48 04 	lis	r9,18436
48041d50:	3c 60 48 04 	lis	r3,18436
48041d54:	38 63 2f 9c 	addi	r3,r3,12188
48041d58:	80 89 43 fc 	lwz	r4,17404(r9)
48041d5c:	4c c6 31 82 	crclr	4*cr1+eq
48041d60:	48 00 27 51 	bl	480444b0 <errno+0x54>
48041d64:	38 60 00 00 	li	r3,0
48041d68:	80 01 00 b4 	lwz	r0,180(r1)
48041d6c:	7c 08 03 a6 	mtlr	r0
48041d70:	81 c1 00 60 	lwz	r14,96(r1)
48041d74:	81 e1 00 64 	lwz	r15,100(r1)
48041d78:	82 01 00 68 	lwz	r16,104(r1)
48041d7c:	82 21 00 6c 	lwz	r17,108(r1)
48041d80:	82 41 00 70 	lwz	r18,112(r1)
48041d84:	82 61 00 74 	lwz	r19,116(r1)
48041d88:	82 81 00 78 	lwz	r20,120(r1)
48041d8c:	82 a1 00 7c 	lwz	r21,124(r1)
48041d90:	82 c1 00 80 	lwz	r22,128(r1)
48041d94:	82 e1 00 84 	lwz	r23,132(r1)
48041d98:	83 01 00 88 	lwz	r24,136(r1)
48041d9c:	83 21 00 8c 	lwz	r25,140(r1)
48041da0:	83 41 00 90 	lwz	r26,144(r1)
48041da4:	83 61 00 94 	lwz	r27,148(r1)
48041da8:	83 81 00 98 	lwz	r28,152(r1)
48041dac:	83 a1 00 9c 	lwz	r29,156(r1)
48041db0:	83 c1 00 a0 	lwz	r30,160(r1)
48041db4:	83 e1 00 a4 	lwz	r31,164(r1)
48041db8:	cb e1 00 a8 	lfd	f31,168(r1)
48041dbc:	38 21 00 b0 	addi	r1,r1,176
48041dc0:	4e 80 00 20 	blr

48041dc4 <help>:
48041dc4:	94 21 ff f0 	stwu	r1,-16(r1)
48041dc8:	7c 08 02 a6 	mflr	r0
48041dcc:	90 01 00 14 	stw	r0,20(r1)
48041dd0:	7c 66 1b 78 	mr	r6,r3
48041dd4:	3c 60 48 04 	lis	r3,18436
48041dd8:	38 63 2f b8 	addi	r3,r3,12216
48041ddc:	7c c4 33 78 	mr	r4,r6
48041de0:	7c c5 33 78 	mr	r5,r6
48041de4:	4c c6 31 82 	crclr	4*cr1+eq
48041de8:	48 00 26 c9 	bl	480444b0 <errno+0x54>
48041dec:	80 01 00 14 	lwz	r0,20(r1)
48041df0:	7c 08 03 a6 	mtlr	r0
48041df4:	38 21 00 10 	addi	r1,r1,16
48041df8:	4e 80 00 20 	blr

48041dfc <skipToParam>:
48041dfc:	94 21 ff e0 	stwu	r1,-32(r1)
48041e00:	7c 08 02 a6 	mflr	r0
48041e04:	93 81 00 10 	stw	r28,16(r1)
48041e08:	93 a1 00 14 	stw	r29,20(r1)
48041e0c:	93 c1 00 18 	stw	r30,24(r1)
48041e10:	93 e1 00 1c 	stw	r31,28(r1)
48041e14:	90 01 00 24 	stw	r0,36(r1)
48041e18:	7c 7e 1b 78 	mr	r30,r3
48041e1c:	7c 9d 23 78 	mr	r29,r4
48041e20:	3f e0 49 26 	lis	r31,18726
48041e24:	3f 80 48 04 	lis	r28,18436
48041e28:	38 7f 4e 50 	addi	r3,r31,20048
48041e2c:	38 80 00 80 	li	r4,128
48041e30:	80 be 00 0c 	lwz	r5,12(r30)
48041e34:	48 00 26 8d 	bl	480444c0 <errno+0x64>
48041e38:	2c 03 00 00 	cmpwi	r3,0
48041e3c:	40 82 00 1c 	bne	48041e58 <skipToParam+0x5c>
48041e40:	38 7c 30 b0 	addi	r3,r28,12464
48041e44:	7f a4 eb 78 	mr	r4,r29
48041e48:	4c c6 31 82 	crclr	4*cr1+eq
48041e4c:	48 00 26 65 	bl	480444b0 <errno+0x54>
48041e50:	38 60 fe 7a 	li	r3,-390
48041e54:	48 00 26 bd 	bl	48044510 <errno+0xb4>
48041e58:	38 7f 4e 50 	addi	r3,r31,20048
48041e5c:	88 1f 4e 50 	lbz	r0,20048(r31)
48041e60:	2c 00 00 2a 	cmpwi	r0,42
48041e64:	40 82 00 20 	bne	48041e84 <skipToParam+0x88>
48041e68:	38 63 00 01 	addi	r3,r3,1
48041e6c:	38 80 00 2a 	li	r4,42
48041e70:	48 00 26 b1 	bl	48044520 <errno+0xc4>
48041e74:	7c 63 1b 79 	mr.	r3,r3
48041e78:	41 82 ff b0 	beq	48041e28 <skipToParam+0x2c>
48041e7c:	38 63 00 01 	addi	r3,r3,1
48041e80:	48 00 00 08 	b	48041e88 <skipToParam+0x8c>
48041e84:	38 7f 4e 50 	addi	r3,r31,20048
48041e88:	80 01 00 24 	lwz	r0,36(r1)
48041e8c:	7c 08 03 a6 	mtlr	r0
48041e90:	83 81 00 10 	lwz	r28,16(r1)
48041e94:	83 a1 00 14 	lwz	r29,20(r1)
48041e98:	83 c1 00 18 	lwz	r30,24(r1)
48041e9c:	83 e1 00 1c 	lwz	r31,28(r1)
48041ea0:	38 21 00 20 	addi	r1,r1,32
48041ea4:	4e 80 00 20 	blr

48041ea8 <beginParam>:
48041ea8:	94 21 ff e0 	stwu	r1,-32(r1)
48041eac:	7c 08 02 a6 	mflr	r0
48041eb0:	93 41 00 08 	stw	r26,8(r1)
48041eb4:	93 61 00 0c 	stw	r27,12(r1)
48041eb8:	93 81 00 10 	stw	r28,16(r1)
48041ebc:	93 a1 00 14 	stw	r29,20(r1)
48041ec0:	93 c1 00 18 	stw	r30,24(r1)
48041ec4:	93 e1 00 1c 	stw	r31,28(r1)
48041ec8:	90 01 00 24 	stw	r0,36(r1)
48041ecc:	7c 7d 1b 78 	mr	r29,r3
48041ed0:	7c 9b 23 78 	mr	r27,r4
48041ed4:	7c bc 2b 78 	mr	r28,r5
48041ed8:	3b e0 00 00 	li	r31,0
48041edc:	2c 1b 00 01 	cmpwi	r27,1
48041ee0:	40 82 00 14 	bne	48041ef4 <beginParam+0x4c>
48041ee4:	80 7c 00 00 	lwz	r3,0(r28)
48041ee8:	4b ff fe dd 	bl	48041dc4 <help>
48041eec:	38 60 fe da 	li	r3,-294
48041ef0:	48 00 26 21 	bl	48044510 <errno+0xb4>
48041ef4:	38 00 00 00 	li	r0,0
48041ef8:	90 1d 00 08 	stw	r0,8(r29)
48041efc:	90 1d 00 04 	stw	r0,4(r29)
48041f00:	90 1d 00 00 	stw	r0,0(r29)
48041f04:	3b c0 00 01 	li	r30,1
48041f08:	7c 1e d8 00 	cmpw	r30,r27
48041f0c:	40 80 01 0c 	bge	48042018 <beginParam+0x170>
48041f10:	3b 40 00 01 	li	r26,1
48041f14:	57 c0 10 3a 	rlwinm	r0,r30,2,0,29
48041f18:	7c 7c 00 2e 	lwzx	r3,r28,r0
48041f1c:	88 03 00 00 	lbz	r0,0(r3)
48041f20:	2c 00 00 2d 	cmpwi	r0,45
48041f24:	40 82 00 88 	bne	48041fac <beginParam+0x104>
48041f28:	3c 80 48 04 	lis	r4,18436
48041f2c:	38 84 30 e0 	addi	r4,r4,12512
48041f30:	48 00 25 c9 	bl	480444f8 <errno+0x9c>
48041f34:	2c 03 00 00 	cmpwi	r3,0
48041f38:	40 82 00 0c 	bne	48041f44 <beginParam+0x9c>
48041f3c:	93 5d 00 00 	stw	r26,0(r29)
48041f40:	48 00 00 cc 	b	4804200c <beginParam+0x164>
48041f44:	57 c0 10 3a 	rlwinm	r0,r30,2,0,29
48041f48:	7c 7c 00 2e 	lwzx	r3,r28,r0
48041f4c:	3c 80 48 04 	lis	r4,18436
48041f50:	38 84 30 e8 	addi	r4,r4,12520
48041f54:	48 00 25 a5 	bl	480444f8 <errno+0x9c>
48041f58:	2c 03 00 00 	cmpwi	r3,0
48041f5c:	40 82 00 0c 	bne	48041f68 <beginParam+0xc0>
48041f60:	93 5d 00 04 	stw	r26,4(r29)
48041f64:	48 00 00 a8 	b	4804200c <beginParam+0x164>
48041f68:	57 c0 10 3a 	rlwinm	r0,r30,2,0,29
48041f6c:	7c 7c 00 2e 	lwzx	r3,r28,r0
48041f70:	3c 80 48 04 	lis	r4,18436
48041f74:	38 84 30 f0 	addi	r4,r4,12528
48041f78:	48 00 25 81 	bl	480444f8 <errno+0x9c>
48041f7c:	2c 03 00 00 	cmpwi	r3,0
48041f80:	40 82 00 0c 	bne	48041f8c <beginParam+0xe4>
48041f84:	93 5d 00 08 	stw	r26,8(r29)
48041f88:	48 00 00 84 	b	4804200c <beginParam+0x164>
48041f8c:	57 c0 10 3a 	rlwinm	r0,r30,2,0,29
48041f90:	3c 60 48 04 	lis	r3,18436
48041f94:	38 63 30 f8 	addi	r3,r3,12536
48041f98:	7c 9c 00 2e 	lwzx	r4,r28,r0
48041f9c:	4c c6 31 82 	crclr	4*cr1+eq
48041fa0:	48 00 25 11 	bl	480444b0 <errno+0x54>
48041fa4:	38 60 f5 6e 	li	r3,-2706
48041fa8:	48 00 25 69 	bl	48044510 <errno+0xb4>
48041fac:	2c 1f 00 00 	cmpwi	r31,0
48041fb0:	41 82 00 1c 	beq	48041fcc <beginParam+0x124>
48041fb4:	3c 60 48 04 	lis	r3,18436
48041fb8:	38 63 31 24 	addi	r3,r3,12580
48041fbc:	4c c6 31 82 	crclr	4*cr1+eq
48041fc0:	48 00 24 f1 	bl	480444b0 <errno+0x54>
48041fc4:	38 60 ff ff 	li	r3,-1
48041fc8:	48 00 25 49 	bl	48044510 <errno+0xb4>
48041fcc:	57 df 10 3a 	rlwinm	r31,r30,2,0,29
48041fd0:	7c 7f e0 2e 	lwzx	r3,r31,r28
48041fd4:	3c 80 48 04 	lis	r4,18436
48041fd8:	38 84 31 58 	addi	r4,r4,12632
48041fdc:	48 00 25 0d 	bl	480444e8 <errno+0x8c>
48041fe0:	90 7d 00 0c 	stw	r3,12(r29)
48041fe4:	2c 03 00 00 	cmpwi	r3,0
48041fe8:	40 82 00 20 	bne	48042008 <beginParam+0x160>
48041fec:	3c 60 48 04 	lis	r3,18436
48041ff0:	38 63 31 5c 	addi	r3,r3,12636
48041ff4:	7c 9f e0 2e 	lwzx	r4,r31,r28
48041ff8:	4c c6 31 82 	crclr	4*cr1+eq
48041ffc:	48 00 24 b5 	bl	480444b0 <errno+0x54>
48042000:	38 60 ff e2 	li	r3,-30
48042004:	48 00 25 0d 	bl	48044510 <errno+0xb4>
48042008:	3b e0 00 01 	li	r31,1
4804200c:	3b de 00 01 	addi	r30,r30,1
48042010:	7c 1e d8 00 	cmpw	r30,r27
48042014:	41 80 ff 00 	blt	48041f14 <beginParam+0x6c>
48042018:	80 1d 00 00 	lwz	r0,0(r29)
4804201c:	2c 00 00 00 	cmpwi	r0,0
48042020:	40 82 00 2c 	bne	4804204c <beginParam+0x1a4>
48042024:	80 1d 00 04 	lwz	r0,4(r29)
48042028:	21 20 00 00 	subfic	r9,r0,0
4804202c:	7c 09 01 14 	adde	r0,r9,r0
48042030:	6b e9 00 01 	xori	r9,r31,1
48042034:	7c 0b 48 39 	and.	r11,r0,r9
48042038:	41 82 00 14 	beq	4804204c <beginParam+0x1a4>
4804203c:	80 7c 00 00 	lwz	r3,0(r28)
48042040:	4b ff fd 85 	bl	48041dc4 <help>
48042044:	38 60 fe 7b 	li	r3,-389
48042048:	48 00 24 c9 	bl	48044510 <errno+0xb4>
4804204c:	80 01 00 24 	lwz	r0,36(r1)
48042050:	7c 08 03 a6 	mtlr	r0
48042054:	83 41 00 08 	lwz	r26,8(r1)
48042058:	83 61 00 0c 	lwz	r27,12(r1)
4804205c:	83 81 00 10 	lwz	r28,16(r1)
48042060:	83 a1 00 14 	lwz	r29,20(r1)
48042064:	83 c1 00 18 	lwz	r30,24(r1)
48042068:	83 e1 00 1c 	lwz	r31,28(r1)
4804206c:	38 21 00 20 	addi	r1,r1,32
48042070:	4e 80 00 20 	blr

48042074 <readParam>:
48042074:	94 21 ff e0 	stwu	r1,-32(r1)
48042078:	7c 08 02 a6 	mflr	r0
4804207c:	93 a1 00 14 	stw	r29,20(r1)
48042080:	93 c1 00 18 	stw	r30,24(r1)
48042084:	93 e1 00 1c 	stw	r31,28(r1)
48042088:	90 01 00 24 	stw	r0,36(r1)
4804208c:	7c 7d 1b 78 	mr	r29,r3
48042090:	7c 9f 23 78 	mr	r31,r4
48042094:	38 00 00 00 	li	r0,0
48042098:	90 1d 00 08 	stw	r0,8(r29)
4804209c:	90 1d 00 04 	stw	r0,4(r29)
480420a0:	90 1d 00 00 	stw	r0,0(r29)
480420a4:	7f e3 fb 78 	mr	r3,r31
480420a8:	3c 80 48 04 	lis	r4,18436
480420ac:	38 84 31 58 	addi	r4,r4,12632
480420b0:	48 00 24 39 	bl	480444e8 <errno+0x8c>
480420b4:	90 7d 00 0c 	stw	r3,12(r29)
480420b8:	2c 03 00 00 	cmpwi	r3,0
480420bc:	40 82 00 20 	bne	480420dc <readParam+0x68>
480420c0:	3c 60 48 04 	lis	r3,18436
480420c4:	38 63 31 5c 	addi	r3,r3,12636
480420c8:	7f e4 fb 78 	mr	r4,r31
480420cc:	4c c6 31 82 	crclr	4*cr1+eq
480420d0:	48 00 23 e1 	bl	480444b0 <errno+0x54>
480420d4:	38 60 fd 21 	li	r3,-735
480420d8:	48 00 24 39 	bl	48044510 <errno+0xb4>
480420dc:	80 01 00 24 	lwz	r0,36(r1)
480420e0:	7c 08 03 a6 	mtlr	r0
480420e4:	83 a1 00 14 	lwz	r29,20(r1)
480420e8:	83 c1 00 18 	lwz	r30,24(r1)
480420ec:	83 e1 00 1c 	lwz	r31,28(r1)
480420f0:	38 21 00 20 	addi	r1,r1,32
480420f4:	4e 80 00 20 	blr

480420f8 <endParam>:
480420f8:	94 21 ff f0 	stwu	r1,-16(r1)
480420fc:	7c 08 02 a6 	mflr	r0
48042100:	93 c1 00 08 	stw	r30,8(r1)
48042104:	93 e1 00 0c 	stw	r31,12(r1)
48042108:	90 01 00 14 	stw	r0,20(r1)
4804210c:	7c 7f 1b 78 	mr	r31,r3
48042110:	80 1f 00 00 	lwz	r0,0(r31)
48042114:	2c 00 00 00 	cmpwi	r0,0
48042118:	41 82 00 0c 	beq	48042124 <endParam+0x2c>
4804211c:	38 60 00 00 	li	r3,0
48042120:	48 00 23 f1 	bl	48044510 <errno+0xb4>
48042124:	80 1f 00 04 	lwz	r0,4(r31)
48042128:	2c 00 00 00 	cmpwi	r0,0
4804212c:	40 82 00 54 	bne	48042180 <endParam+0x88>
48042130:	3f c0 49 26 	lis	r30,18726
48042134:	38 7e 4e 50 	addi	r3,r30,20048
48042138:	38 80 00 80 	li	r4,128
4804213c:	80 bf 00 0c 	lwz	r5,12(r31)
48042140:	48 00 23 81 	bl	480444c0 <errno+0x64>
48042144:	2c 03 00 00 	cmpwi	r3,0
48042148:	41 82 00 38 	beq	48042180 <endParam+0x88>
4804214c:	38 7e 4e 50 	addi	r3,r30,20048
48042150:	88 1e 4e 50 	lbz	r0,20048(r30)
48042154:	2c 00 00 2a 	cmpwi	r0,42
48042158:	40 82 00 18 	bne	48042170 <endParam+0x78>
4804215c:	38 63 00 01 	addi	r3,r3,1
48042160:	38 80 00 2a 	li	r4,42
48042164:	48 00 23 bd 	bl	48044520 <errno+0xc4>
48042168:	2c 03 00 00 	cmpwi	r3,0
4804216c:	41 82 ff c8 	beq	48042134 <endParam+0x3c>
48042170:	3c 60 48 04 	lis	r3,18436
48042174:	38 63 31 88 	addi	r3,r3,12680
48042178:	4c c6 31 82 	crclr	4*cr1+eq
4804217c:	48 00 23 35 	bl	480444b0 <errno+0x54>
48042180:	80 01 00 14 	lwz	r0,20(r1)
48042184:	7c 08 03 a6 	mtlr	r0
48042188:	83 c1 00 08 	lwz	r30,8(r1)
4804218c:	83 e1 00 0c 	lwz	r31,12(r1)
48042190:	38 21 00 10 	addi	r1,r1,16
48042194:	4e 80 00 20 	blr

48042198 <commentParam>:
48042198:	94 21 ff f0 	stwu	r1,-16(r1)
4804219c:	7c 08 02 a6 	mflr	r0
480421a0:	90 01 00 14 	stw	r0,20(r1)
480421a4:	80 03 00 00 	lwz	r0,0(r3)
480421a8:	2c 00 00 00 	cmpwi	r0,0
480421ac:	40 82 00 10 	bne	480421bc <commentParam+0x24>
480421b0:	80 03 00 04 	lwz	r0,4(r3)
480421b4:	2c 00 00 00 	cmpwi	r0,0
480421b8:	41 82 00 14 	beq	480421cc <commentParam+0x34>
480421bc:	3c 60 48 04 	lis	r3,18436
480421c0:	38 63 31 b4 	addi	r3,r3,12724
480421c4:	4c c6 31 82 	crclr	4*cr1+eq
480421c8:	48 00 22 e9 	bl	480444b0 <errno+0x54>
480421cc:	80 01 00 14 	lwz	r0,20(r1)
480421d0:	7c 08 03 a6 	mtlr	r0
480421d4:	38 21 00 10 	addi	r1,r1,16
480421d8:	4e 80 00 20 	blr

480421dc <getIntParam>:
480421dc:	94 21 ff e0 	stwu	r1,-32(r1)
480421e0:	7c 08 02 a6 	mflr	r0
480421e4:	93 61 00 0c 	stw	r27,12(r1)
480421e8:	93 81 00 10 	stw	r28,16(r1)
480421ec:	93 a1 00 14 	stw	r29,20(r1)
480421f0:	93 c1 00 18 	stw	r30,24(r1)
480421f4:	93 e1 00 1c 	stw	r31,28(r1)
480421f8:	90 01 00 24 	stw	r0,36(r1)
480421fc:	7c 7d 1b 78 	mr	r29,r3
48042200:	7c 9b 23 78 	mr	r27,r4
48042204:	7c bc 2b 78 	mr	r28,r5
48042208:	7c de 33 78 	mr	r30,r6
4804220c:	80 1d 00 00 	lwz	r0,0(r29)
48042210:	2c 00 00 00 	cmpwi	r0,0
48042214:	41 82 00 20 	beq	48042234 <getIntParam+0x58>
48042218:	3c 60 48 04 	lis	r3,18436
4804221c:	38 63 31 bc 	addi	r3,r3,12732
48042220:	7f c5 f3 78 	mr	r5,r30
48042224:	4c c6 31 82 	crclr	4*cr1+eq
48042228:	48 00 22 89 	bl	480444b0 <errno+0x54>
4804222c:	93 dc 00 00 	stw	r30,0(r28)
48042230:	48 00 00 ac 	b	480422dc <getIntParam+0x100>
48042234:	80 1d 00 04 	lwz	r0,4(r29)
48042238:	2c 00 00 00 	cmpwi	r0,0
4804223c:	41 82 00 5c 	beq	48042298 <getIntParam+0xbc>
48042240:	3c 60 48 04 	lis	r3,18436
48042244:	38 63 31 d0 	addi	r3,r3,12752
48042248:	7f 64 db 78 	mr	r4,r27
4804224c:	7f c5 f3 78 	mr	r5,r30
48042250:	4c c6 31 82 	crclr	4*cr1+eq
48042254:	48 00 22 5d 	bl	480444b0 <errno+0x54>
48042258:	3f e0 49 26 	lis	r31,18726
4804225c:	38 7f 4e 50 	addi	r3,r31,20048
48042260:	48 00 22 59 	bl	480444b8 <errno+0x5c>
48042264:	38 7f 4e 50 	addi	r3,r31,20048
48042268:	48 00 22 b1 	bl	48044518 <errno+0xbc>
4804226c:	2c 03 00 00 	cmpwi	r3,0
48042270:	41 82 00 20 	beq	48042290 <getIntParam+0xb4>
48042274:	38 7f 4e 50 	addi	r3,r31,20048
48042278:	3c 80 48 04 	lis	r4,18436
4804227c:	38 84 31 e0 	addi	r4,r4,12768
48042280:	7f 85 e3 78 	mr	r5,r28
48042284:	4c c6 31 82 	crclr	4*cr1+eq
48042288:	48 00 22 49 	bl	480444d0 <errno+0x74>
4804228c:	48 00 00 2c 	b	480422b8 <getIntParam+0xdc>
48042290:	93 dc 00 00 	stw	r30,0(r28)
48042294:	48 00 00 24 	b	480422b8 <getIntParam+0xdc>
48042298:	7f a3 eb 78 	mr	r3,r29
4804229c:	7f 64 db 78 	mr	r4,r27
480422a0:	4b ff fb 5d 	bl	48041dfc <skipToParam>
480422a4:	3c 80 48 04 	lis	r4,18436
480422a8:	38 84 31 e0 	addi	r4,r4,12768
480422ac:	7f 85 e3 78 	mr	r5,r28
480422b0:	4c c6 31 82 	crclr	4*cr1+eq
480422b4:	48 00 22 1d 	bl	480444d0 <errno+0x74>
480422b8:	80 1d 00 08 	lwz	r0,8(r29)
480422bc:	2c 00 00 00 	cmpwi	r0,0
480422c0:	41 82 00 1c 	beq	480422dc <getIntParam+0x100>
480422c4:	3c 60 48 04 	lis	r3,18436
480422c8:	38 63 31 bc 	addi	r3,r3,12732
480422cc:	7f 64 db 78 	mr	r4,r27
480422d0:	80 bc 00 00 	lwz	r5,0(r28)
480422d4:	4c c6 31 82 	crclr	4*cr1+eq
480422d8:	48 00 21 d9 	bl	480444b0 <errno+0x54>
480422dc:	80 01 00 24 	lwz	r0,36(r1)
480422e0:	7c 08 03 a6 	mtlr	r0
480422e4:	83 61 00 0c 	lwz	r27,12(r1)
480422e8:	83 81 00 10 	lwz	r28,16(r1)
480422ec:	83 a1 00 14 	lwz	r29,20(r1)
480422f0:	83 c1 00 18 	lwz	r30,24(r1)
480422f4:	83 e1 00 1c 	lwz	r31,28(r1)
480422f8:	38 21 00 20 	addi	r1,r1,32
480422fc:	4e 80 00 20 	blr

48042300 <getFloatParam>:
48042300:	94 21 ff e0 	stwu	r1,-32(r1)
48042304:	7c 08 02 a6 	mflr	r0
48042308:	db e1 00 18 	stfd	f31,24(r1)
4804230c:	93 81 00 08 	stw	r28,8(r1)
48042310:	93 a1 00 0c 	stw	r29,12(r1)
48042314:	93 c1 00 10 	stw	r30,16(r1)
48042318:	93 e1 00 14 	stw	r31,20(r1)
4804231c:	90 01 00 24 	stw	r0,36(r1)
48042320:	7c 7d 1b 78 	mr	r29,r3
48042324:	7c 9c 23 78 	mr	r28,r4
48042328:	7c be 2b 78 	mr	r30,r5
4804232c:	ff e0 08 90 	fmr	f31,f1
48042330:	80 1d 00 00 	lwz	r0,0(r29)
48042334:	2c 00 00 00 	cmpwi	r0,0
48042338:	41 82 00 20 	beq	48042358 <getFloatParam+0x58>
4804233c:	3c 60 48 04 	lis	r3,18436
48042340:	38 63 31 e4 	addi	r3,r3,12772
48042344:	fc 20 f8 90 	fmr	f1,f31
48042348:	4c c6 32 42 	crset	4*cr1+eq
4804234c:	48 00 21 65 	bl	480444b0 <errno+0x54>
48042350:	d3 fe 00 00 	stfs	f31,0(r30)
48042354:	48 00 00 ac 	b	48042400 <getFloatParam+0x100>
48042358:	80 1d 00 04 	lwz	r0,4(r29)
4804235c:	2c 00 00 00 	cmpwi	r0,0
48042360:	41 82 00 5c 	beq	480423bc <getFloatParam+0xbc>
48042364:	3c 60 48 04 	lis	r3,18436
48042368:	38 63 31 f8 	addi	r3,r3,12792
4804236c:	7f 84 e3 78 	mr	r4,r28
48042370:	fc 20 f8 90 	fmr	f1,f31
48042374:	4c c6 32 42 	crset	4*cr1+eq
48042378:	48 00 21 39 	bl	480444b0 <errno+0x54>
4804237c:	3f e0 49 26 	lis	r31,18726
48042380:	38 7f 4e 50 	addi	r3,r31,20048
48042384:	48 00 21 35 	bl	480444b8 <errno+0x5c>
48042388:	38 7f 4e 50 	addi	r3,r31,20048
4804238c:	48 00 21 8d 	bl	48044518 <errno+0xbc>
48042390:	2c 03 00 00 	cmpwi	r3,0
48042394:	41 82 00 20 	beq	480423b4 <getFloatParam+0xb4>
48042398:	38 7f 4e 50 	addi	r3,r31,20048
4804239c:	3c 80 48 04 	lis	r4,18436
480423a0:	38 84 32 08 	addi	r4,r4,12808
480423a4:	7f c5 f3 78 	mr	r5,r30
480423a8:	4c c6 31 82 	crclr	4*cr1+eq
480423ac:	48 00 21 25 	bl	480444d0 <errno+0x74>
480423b0:	48 00 00 2c 	b	480423dc <getFloatParam+0xdc>
480423b4:	d3 fe 00 00 	stfs	f31,0(r30)
480423b8:	48 00 00 24 	b	480423dc <getFloatParam+0xdc>
480423bc:	7f a3 eb 78 	mr	r3,r29
480423c0:	7f 84 e3 78 	mr	r4,r28
480423c4:	4b ff fa 39 	bl	48041dfc <skipToParam>
480423c8:	3c 80 48 04 	lis	r4,18436
480423cc:	38 84 32 08 	addi	r4,r4,12808
480423d0:	7f c5 f3 78 	mr	r5,r30
480423d4:	4c c6 31 82 	crclr	4*cr1+eq
480423d8:	48 00 20 f9 	bl	480444d0 <errno+0x74>
480423dc:	80 1d 00 08 	lwz	r0,8(r29)
480423e0:	2c 00 00 00 	cmpwi	r0,0
480423e4:	41 82 00 1c 	beq	48042400 <getFloatParam+0x100>
480423e8:	c0 3e 00 00 	lfs	f1,0(r30)
480423ec:	3c 60 48 04 	lis	r3,18436
480423f0:	38 63 31 e4 	addi	r3,r3,12772
480423f4:	7f 84 e3 78 	mr	r4,r28
480423f8:	4c c6 32 42 	crset	4*cr1+eq
480423fc:	48 00 20 b5 	bl	480444b0 <errno+0x54>
48042400:	80 01 00 24 	lwz	r0,36(r1)
48042404:	7c 08 03 a6 	mtlr	r0
48042408:	83 81 00 08 	lwz	r28,8(r1)
4804240c:	83 a1 00 0c 	lwz	r29,12(r1)
48042410:	83 c1 00 10 	lwz	r30,16(r1)
48042414:	83 e1 00 14 	lwz	r31,20(r1)
48042418:	cb e1 00 18 	lfd	f31,24(r1)
4804241c:	38 21 00 20 	addi	r1,r1,32
48042420:	4e 80 00 20 	blr

48042424 <getStringParam>:
48042424:	94 21 ff e0 	stwu	r1,-32(r1)
48042428:	7c 08 02 a6 	mflr	r0
4804242c:	93 61 00 0c 	stw	r27,12(r1)
48042430:	93 81 00 10 	stw	r28,16(r1)
48042434:	93 a1 00 14 	stw	r29,20(r1)
48042438:	93 c1 00 18 	stw	r30,24(r1)
4804243c:	93 e1 00 1c 	stw	r31,28(r1)
48042440:	90 01 00 24 	stw	r0,36(r1)
48042444:	7c 7d 1b 78 	mr	r29,r3
48042448:	7c 9b 23 78 	mr	r27,r4
4804244c:	7c bc 2b 78 	mr	r28,r5
48042450:	7c de 33 78 	mr	r30,r6
48042454:	80 1d 00 00 	lwz	r0,0(r29)
48042458:	2c 00 00 00 	cmpwi	r0,0
4804245c:	41 82 00 28 	beq	48042484 <getStringParam+0x60>
48042460:	3c 60 48 04 	lis	r3,18436
48042464:	38 63 32 0c 	addi	r3,r3,12812
48042468:	7f c5 f3 78 	mr	r5,r30
4804246c:	4c c6 31 82 	crclr	4*cr1+eq
48042470:	48 00 20 41 	bl	480444b0 <errno+0x54>
48042474:	7f 83 e3 78 	mr	r3,r28
48042478:	7f c4 f3 78 	mr	r4,r30
4804247c:	48 00 20 2d 	bl	480444a8 <errno+0x4c>
48042480:	48 00 00 b4 	b	48042534 <getStringParam+0x110>
48042484:	80 1d 00 04 	lwz	r0,4(r29)
48042488:	2c 00 00 00 	cmpwi	r0,0
4804248c:	41 82 00 64 	beq	480424f0 <getStringParam+0xcc>
48042490:	3c 60 48 04 	lis	r3,18436
48042494:	38 63 32 20 	addi	r3,r3,12832
48042498:	7f 64 db 78 	mr	r4,r27
4804249c:	7f c5 f3 78 	mr	r5,r30
480424a0:	4c c6 31 82 	crclr	4*cr1+eq
480424a4:	48 00 20 0d 	bl	480444b0 <errno+0x54>
480424a8:	3f e0 49 26 	lis	r31,18726
480424ac:	38 7f 4e 50 	addi	r3,r31,20048
480424b0:	48 00 20 09 	bl	480444b8 <errno+0x5c>
480424b4:	38 7f 4e 50 	addi	r3,r31,20048
480424b8:	48 00 20 61 	bl	48044518 <errno+0xbc>
480424bc:	2c 03 00 00 	cmpwi	r3,0
480424c0:	41 82 00 20 	beq	480424e0 <getStringParam+0xbc>
480424c4:	38 7f 4e 50 	addi	r3,r31,20048
480424c8:	3c 80 48 04 	lis	r4,18436
480424cc:	38 84 32 34 	addi	r4,r4,12852
480424d0:	7f 85 e3 78 	mr	r5,r28
480424d4:	4c c6 31 82 	crclr	4*cr1+eq
480424d8:	48 00 1f f9 	bl	480444d0 <errno+0x74>
480424dc:	48 00 00 34 	b	48042510 <getStringParam+0xec>
480424e0:	7f 83 e3 78 	mr	r3,r28
480424e4:	7f c4 f3 78 	mr	r4,r30
480424e8:	48 00 1f c1 	bl	480444a8 <errno+0x4c>
480424ec:	48 00 00 24 	b	48042510 <getStringParam+0xec>
480424f0:	7f a3 eb 78 	mr	r3,r29
480424f4:	7f 64 db 78 	mr	r4,r27
480424f8:	4b ff f9 05 	bl	48041dfc <skipToParam>
480424fc:	3c 80 48 04 	lis	r4,18436
48042500:	38 84 32 34 	addi	r4,r4,12852
48042504:	7f 85 e3 78 	mr	r5,r28
48042508:	4c c6 31 82 	crclr	4*cr1+eq
4804250c:	48 00 1f c5 	bl	480444d0 <errno+0x74>
48042510:	80 1d 00 08 	lwz	r0,8(r29)
48042514:	2c 00 00 00 	cmpwi	r0,0
48042518:	41 82 00 1c 	beq	48042534 <getStringParam+0x110>
4804251c:	3c 60 48 04 	lis	r3,18436
48042520:	38 63 32 0c 	addi	r3,r3,12812
48042524:	7f 64 db 78 	mr	r4,r27
48042528:	7f 85 e3 78 	mr	r5,r28
4804252c:	4c c6 31 82 	crclr	4*cr1+eq
48042530:	48 00 1f 81 	bl	480444b0 <errno+0x54>
48042534:	80 01 00 24 	lwz	r0,36(r1)
48042538:	7c 08 03 a6 	mtlr	r0
4804253c:	83 61 00 0c 	lwz	r27,12(r1)
48042540:	83 81 00 10 	lwz	r28,16(r1)
48042544:	83 a1 00 14 	lwz	r29,20(r1)
48042548:	83 c1 00 18 	lwz	r30,24(r1)
4804254c:	83 e1 00 1c 	lwz	r31,28(r1)
48042550:	38 21 00 20 	addi	r1,r1,32
48042554:	4e 80 00 20 	blr

48042558 <getCondIntParam>:
48042558:	94 21 ff e0 	stwu	r1,-32(r1)
4804255c:	7c 08 02 a6 	mflr	r0
48042560:	93 41 00 08 	stw	r26,8(r1)
48042564:	93 61 00 0c 	stw	r27,12(r1)
48042568:	93 81 00 10 	stw	r28,16(r1)
4804256c:	93 a1 00 14 	stw	r29,20(r1)
48042570:	93 c1 00 18 	stw	r30,24(r1)
48042574:	93 e1 00 1c 	stw	r31,28(r1)
48042578:	90 01 00 24 	stw	r0,36(r1)
4804257c:	7c 7d 1b 78 	mr	r29,r3
48042580:	7c 9a 23 78 	mr	r26,r4
48042584:	7c db 33 78 	mr	r27,r6
48042588:	7c fc 3b 78 	mr	r28,r7
4804258c:	7d 1e 43 78 	mr	r30,r8
48042590:	80 1d 00 00 	lwz	r0,0(r29)
48042594:	2c 00 00 00 	cmpwi	r0,0
48042598:	41 82 00 24 	beq	480425bc <getCondIntParam+0x64>
4804259c:	3c 60 48 04 	lis	r3,18436
480425a0:	38 63 32 38 	addi	r3,r3,12856
480425a4:	7f 65 db 78 	mr	r5,r27
480425a8:	7f c6 f3 78 	mr	r6,r30
480425ac:	4c c6 31 82 	crclr	4*cr1+eq
480425b0:	48 00 1f 01 	bl	480444b0 <errno+0x54>
480425b4:	93 dc 00 00 	stw	r30,0(r28)
480425b8:	48 00 00 bc 	b	48042674 <getCondIntParam+0x11c>
480425bc:	2c 05 00 00 	cmpwi	r5,0
480425c0:	41 82 00 b4 	beq	48042674 <getCondIntParam+0x11c>
480425c4:	80 1d 00 04 	lwz	r0,4(r29)
480425c8:	2c 00 00 00 	cmpwi	r0,0
480425cc:	41 82 00 60 	beq	4804262c <getCondIntParam+0xd4>
480425d0:	3c 60 48 04 	lis	r3,18436
480425d4:	38 63 32 50 	addi	r3,r3,12880
480425d8:	7f 44 d3 78 	mr	r4,r26
480425dc:	7f 65 db 78 	mr	r5,r27
480425e0:	7f c6 f3 78 	mr	r6,r30
480425e4:	4c c6 31 82 	crclr	4*cr1+eq
480425e8:	48 00 1e c9 	bl	480444b0 <errno+0x54>
480425ec:	3f e0 49 26 	lis	r31,18726
480425f0:	38 7f 4e 50 	addi	r3,r31,20048
480425f4:	48 00 1e c5 	bl	480444b8 <errno+0x5c>
480425f8:	38 7f 4e 50 	addi	r3,r31,20048
480425fc:	48 00 1f 1d 	bl	48044518 <errno+0xbc>
48042600:	2c 03 00 00 	cmpwi	r3,0
48042604:	41 82 00 20 	beq	48042624 <getCondIntParam+0xcc>
48042608:	38 7f 4e 50 	addi	r3,r31,20048
4804260c:	3c 80 48 04 	lis	r4,18436
48042610:	38 84 31 e0 	addi	r4,r4,12768
48042614:	7f 85 e3 78 	mr	r5,r28
48042618:	4c c6 31 82 	crclr	4*cr1+eq
4804261c:	48 00 1e b5 	bl	480444d0 <errno+0x74>
48042620:	48 00 00 2c 	b	4804264c <getCondIntParam+0xf4>
48042624:	93 dc 00 00 	stw	r30,0(r28)
48042628:	48 00 00 24 	b	4804264c <getCondIntParam+0xf4>
4804262c:	7f a3 eb 78 	mr	r3,r29
48042630:	7f 64 db 78 	mr	r4,r27
48042634:	4b ff f7 c9 	bl	48041dfc <skipToParam>
48042638:	3c 80 48 04 	lis	r4,18436
4804263c:	38 84 31 e0 	addi	r4,r4,12768
48042640:	7f 85 e3 78 	mr	r5,r28
48042644:	4c c6 31 82 	crclr	4*cr1+eq
48042648:	48 00 1e 89 	bl	480444d0 <errno+0x74>
4804264c:	80 1d 00 08 	lwz	r0,8(r29)
48042650:	2c 00 00 00 	cmpwi	r0,0
48042654:	41 82 00 20 	beq	48042674 <getCondIntParam+0x11c>
48042658:	3c 60 48 04 	lis	r3,18436
4804265c:	38 63 32 38 	addi	r3,r3,12856
48042660:	7f 44 d3 78 	mr	r4,r26
48042664:	7f 65 db 78 	mr	r5,r27
48042668:	80 dc 00 00 	lwz	r6,0(r28)
4804266c:	4c c6 31 82 	crclr	4*cr1+eq
48042670:	48 00 1e 41 	bl	480444b0 <errno+0x54>
48042674:	80 01 00 24 	lwz	r0,36(r1)
48042678:	7c 08 03 a6 	mtlr	r0
4804267c:	83 41 00 08 	lwz	r26,8(r1)
48042680:	83 61 00 0c 	lwz	r27,12(r1)
48042684:	83 81 00 10 	lwz	r28,16(r1)
48042688:	83 a1 00 14 	lwz	r29,20(r1)
4804268c:	83 c1 00 18 	lwz	r30,24(r1)
48042690:	83 e1 00 1c 	lwz	r31,28(r1)
48042694:	38 21 00 20 	addi	r1,r1,32
48042698:	4e 80 00 20 	blr

4804269c <getCondFloatParam>:
4804269c:	94 21 ff d0 	stwu	r1,-48(r1)
480426a0:	7c 08 02 a6 	mflr	r0
480426a4:	db e1 00 28 	stfd	f31,40(r1)
480426a8:	93 61 00 14 	stw	r27,20(r1)
480426ac:	93 81 00 18 	stw	r28,24(r1)
480426b0:	93 a1 00 1c 	stw	r29,28(r1)
480426b4:	93 c1 00 20 	stw	r30,32(r1)
480426b8:	93 e1 00 24 	stw	r31,36(r1)
480426bc:	90 01 00 34 	stw	r0,52(r1)
480426c0:	7c 7d 1b 78 	mr	r29,r3
480426c4:	7c 9b 23 78 	mr	r27,r4
480426c8:	7c dc 33 78 	mr	r28,r6
480426cc:	7c fe 3b 78 	mr	r30,r7
480426d0:	ff e0 08 90 	fmr	f31,f1
480426d4:	80 1d 00 00 	lwz	r0,0(r29)
480426d8:	2c 00 00 00 	cmpwi	r0,0
480426dc:	41 82 00 24 	beq	48042700 <getCondFloatParam+0x64>
480426e0:	3c 60 48 04 	lis	r3,18436
480426e4:	38 63 32 64 	addi	r3,r3,12900
480426e8:	7f 85 e3 78 	mr	r5,r28
480426ec:	fc 20 f8 90 	fmr	f1,f31
480426f0:	4c c6 32 42 	crset	4*cr1+eq
480426f4:	48 00 1d bd 	bl	480444b0 <errno+0x54>
480426f8:	d3 fe 00 00 	stfs	f31,0(r30)
480426fc:	48 00 00 bc 	b	480427b8 <getCondFloatParam+0x11c>
48042700:	2c 05 00 00 	cmpwi	r5,0
48042704:	41 82 00 b4 	beq	480427b8 <getCondFloatParam+0x11c>
48042708:	80 1d 00 04 	lwz	r0,4(r29)
4804270c:	2c 00 00 00 	cmpwi	r0,0
48042710:	41 82 00 60 	beq	48042770 <getCondFloatParam+0xd4>
48042714:	3c 60 48 04 	lis	r3,18436
48042718:	38 63 32 7c 	addi	r3,r3,12924
4804271c:	7f 64 db 78 	mr	r4,r27
48042720:	7f 85 e3 78 	mr	r5,r28
48042724:	fc 20 f8 90 	fmr	f1,f31
48042728:	4c c6 32 42 	crset	4*cr1+eq
4804272c:	48 00 1d 85 	bl	480444b0 <errno+0x54>
48042730:	3f e0 49 26 	lis	r31,18726
48042734:	38 7f 4e 50 	addi	r3,r31,20048
48042738:	48 00 1d 81 	bl	480444b8 <errno+0x5c>
4804273c:	38 7f 4e 50 	addi	r3,r31,20048
48042740:	48 00 1d d9 	bl	48044518 <errno+0xbc>
48042744:	2c 03 00 00 	cmpwi	r3,0
48042748:	41 82 00 20 	beq	48042768 <getCondFloatParam+0xcc>
4804274c:	38 7f 4e 50 	addi	r3,r31,20048
48042750:	3c 80 48 04 	lis	r4,18436
48042754:	38 84 32 08 	addi	r4,r4,12808
48042758:	7f c5 f3 78 	mr	r5,r30
4804275c:	4c c6 31 82 	crclr	4*cr1+eq
48042760:	48 00 1d 71 	bl	480444d0 <errno+0x74>
48042764:	48 00 00 2c 	b	48042790 <getCondFloatParam+0xf4>
48042768:	d3 fe 00 00 	stfs	f31,0(r30)
4804276c:	48 00 00 24 	b	48042790 <getCondFloatParam+0xf4>
48042770:	7f a3 eb 78 	mr	r3,r29
48042774:	7f 84 e3 78 	mr	r4,r28
48042778:	4b ff f6 85 	bl	48041dfc <skipToParam>
4804277c:	3c 80 48 04 	lis	r4,18436
48042780:	38 84 32 08 	addi	r4,r4,12808
48042784:	7f c5 f3 78 	mr	r5,r30
48042788:	4c c6 31 82 	crclr	4*cr1+eq
4804278c:	48 00 1d 45 	bl	480444d0 <errno+0x74>
48042790:	80 1d 00 08 	lwz	r0,8(r29)
48042794:	2c 00 00 00 	cmpwi	r0,0
48042798:	41 82 00 20 	beq	480427b8 <getCondFloatParam+0x11c>
4804279c:	c0 3e 00 00 	lfs	f1,0(r30)
480427a0:	3c 60 48 04 	lis	r3,18436
480427a4:	38 63 32 64 	addi	r3,r3,12900
480427a8:	7f 64 db 78 	mr	r4,r27
480427ac:	7f 85 e3 78 	mr	r5,r28
480427b0:	4c c6 32 42 	crset	4*cr1+eq
480427b4:	48 00 1c fd 	bl	480444b0 <errno+0x54>
480427b8:	80 01 00 34 	lwz	r0,52(r1)
480427bc:	7c 08 03 a6 	mtlr	r0
480427c0:	83 61 00 14 	lwz	r27,20(r1)
480427c4:	83 81 00 18 	lwz	r28,24(r1)
480427c8:	83 a1 00 1c 	lwz	r29,28(r1)
480427cc:	83 c1 00 20 	lwz	r30,32(r1)
480427d0:	83 e1 00 24 	lwz	r31,36(r1)
480427d4:	cb e1 00 28 	lfd	f31,40(r1)
480427d8:	38 21 00 30 	addi	r1,r1,48
480427dc:	4e 80 00 20 	blr

480427e0 <getCondStringParam>:
480427e0:	94 21 ff e0 	stwu	r1,-32(r1)
480427e4:	7c 08 02 a6 	mflr	r0
480427e8:	93 41 00 08 	stw	r26,8(r1)
480427ec:	93 61 00 0c 	stw	r27,12(r1)
480427f0:	93 81 00 10 	stw	r28,16(r1)
480427f4:	93 a1 00 14 	stw	r29,20(r1)
480427f8:	93 c1 00 18 	stw	r30,24(r1)
480427fc:	93 e1 00 1c 	stw	r31,28(r1)
48042800:	90 01 00 24 	stw	r0,36(r1)
48042804:	7c 7d 1b 78 	mr	r29,r3
48042808:	7c 9a 23 78 	mr	r26,r4
4804280c:	7c db 33 78 	mr	r27,r6
48042810:	7c fc 3b 78 	mr	r28,r7
48042814:	7d 1e 43 78 	mr	r30,r8
48042818:	80 1d 00 00 	lwz	r0,0(r29)
4804281c:	2c 00 00 00 	cmpwi	r0,0
48042820:	41 82 00 2c 	beq	4804284c <getCondStringParam+0x6c>
48042824:	3c 60 48 04 	lis	r3,18436
48042828:	38 63 32 94 	addi	r3,r3,12948
4804282c:	7f 65 db 78 	mr	r5,r27
48042830:	7f c6 f3 78 	mr	r6,r30
48042834:	4c c6 31 82 	crclr	4*cr1+eq
48042838:	48 00 1c 79 	bl	480444b0 <errno+0x54>
4804283c:	7f 83 e3 78 	mr	r3,r28
48042840:	7f c4 f3 78 	mr	r4,r30
48042844:	48 00 1c 65 	bl	480444a8 <errno+0x4c>
48042848:	48 00 00 c4 	b	4804290c <getCondStringParam+0x12c>
4804284c:	2c 05 00 00 	cmpwi	r5,0
48042850:	41 82 00 bc 	beq	4804290c <getCondStringParam+0x12c>
48042854:	80 1d 00 04 	lwz	r0,4(r29)
48042858:	2c 00 00 00 	cmpwi	r0,0
4804285c:	41 82 00 68 	beq	480428c4 <getCondStringParam+0xe4>
48042860:	3c 60 48 04 	lis	r3,18436
48042864:	38 63 32 b0 	addi	r3,r3,12976
48042868:	7f 44 d3 78 	mr	r4,r26
4804286c:	7f 65 db 78 	mr	r5,r27
48042870:	7f c6 f3 78 	mr	r6,r30
48042874:	4c c6 31 82 	crclr	4*cr1+eq
48042878:	48 00 1c 39 	bl	480444b0 <errno+0x54>
4804287c:	3f e0 49 26 	lis	r31,18726
48042880:	38 7f 4e 50 	addi	r3,r31,20048
48042884:	48 00 1c 35 	bl	480444b8 <errno+0x5c>
48042888:	38 7f 4e 50 	addi	r3,r31,20048
4804288c:	48 00 1c 8d 	bl	48044518 <errno+0xbc>
48042890:	2c 03 00 00 	cmpwi	r3,0
48042894:	41 82 00 20 	beq	480428b4 <getCondStringParam+0xd4>
48042898:	38 7f 4e 50 	addi	r3,r31,20048
4804289c:	3c 80 48 04 	lis	r4,18436
480428a0:	38 84 32 34 	addi	r4,r4,12852
480428a4:	7f 85 e3 78 	mr	r5,r28
480428a8:	4c c6 31 82 	crclr	4*cr1+eq
480428ac:	48 00 1c 25 	bl	480444d0 <errno+0x74>
480428b0:	48 00 00 34 	b	480428e4 <getCondStringParam+0x104>
480428b4:	7f 83 e3 78 	mr	r3,r28
480428b8:	7f c4 f3 78 	mr	r4,r30
480428bc:	48 00 1b ed 	bl	480444a8 <errno+0x4c>
480428c0:	48 00 00 24 	b	480428e4 <getCondStringParam+0x104>
480428c4:	7f a3 eb 78 	mr	r3,r29
480428c8:	7f 64 db 78 	mr	r4,r27
480428cc:	4b ff f5 31 	bl	48041dfc <skipToParam>
480428d0:	3c 80 48 04 	lis	r4,18436
480428d4:	38 84 32 34 	addi	r4,r4,12852
480428d8:	7f 85 e3 78 	mr	r5,r28
480428dc:	4c c6 31 82 	crclr	4*cr1+eq
480428e0:	48 00 1b f1 	bl	480444d0 <errno+0x74>
480428e4:	80 1d 00 08 	lwz	r0,8(r29)
480428e8:	2c 00 00 00 	cmpwi	r0,0
480428ec:	41 82 00 20 	beq	4804290c <getCondStringParam+0x12c>
480428f0:	3c 60 48 04 	lis	r3,18436
480428f4:	38 63 32 c8 	addi	r3,r3,13000
480428f8:	7f 44 d3 78 	mr	r4,r26
480428fc:	7f 65 db 78 	mr	r5,r27
48042900:	7f 86 e3 78 	mr	r6,r28
48042904:	4c c6 31 82 	crclr	4*cr1+eq
48042908:	48 00 1b a9 	bl	480444b0 <errno+0x54>
4804290c:	80 01 00 24 	lwz	r0,36(r1)
48042910:	7c 08 03 a6 	mtlr	r0
48042914:	83 41 00 08 	lwz	r26,8(r1)
48042918:	83 61 00 0c 	lwz	r27,12(r1)
4804291c:	83 81 00 10 	lwz	r28,16(r1)
48042920:	83 a1 00 14 	lwz	r29,20(r1)
48042924:	83 c1 00 18 	lwz	r30,24(r1)
48042928:	83 e1 00 1c 	lwz	r31,28(r1)
4804292c:	38 21 00 20 	addi	r1,r1,32
48042930:	4e 80 00 20 	blr

48042934 <enable_timer>:
48042934:	7c 00 04 ac 	sync
48042938:	7c 10 fa a6 	mfdbsr	r0
4804293c:	64 00 04 00 	oris	r0,r0,1024
48042940:	7c 10 fb a6 	mtdbsr	r0
48042944:	7c 00 04 ac 	sync
48042948:	4e 80 00 20 	blr

4804294c <get_time>:
4804294c:	7c 0d 42 a6 	mfspr	r0,269
48042950:	7d 2c 42 a6 	mfspr	r9,268
48042954:	91 23 00 04 	stw	r9,4(r3)
48042958:	7d 2d 42 a6 	mfspr	r9,269
4804295c:	91 23 00 00 	stw	r9,0(r3)
48042960:	7c 09 00 00 	cmpw	r9,r0
48042964:	40 82 ff e8 	bne	4804294c <get_time>
48042968:	4e 80 00 20 	blr

4804296c <get_time_diff>:
4804296c:	94 21 ff f0 	stwu	r1,-16(r1)
48042970:	80 04 00 00 	lwz	r0,0(r4)
48042974:	3d 20 43 30 	lis	r9,17200
48042978:	3d 60 48 04 	lis	r11,18436
4804297c:	39 6b 32 e0 	addi	r11,r11,13024
48042980:	c9 8b 00 00 	lfd	f12,0(r11)
48042984:	90 01 00 0c 	stw	r0,12(r1)
48042988:	91 21 00 08 	stw	r9,8(r1)
4804298c:	c9 61 00 08 	lfd	f11,8(r1)
48042990:	fd 6b 60 28 	fsub	f11,f11,f12
48042994:	80 03 00 00 	lwz	r0,0(r3)
48042998:	90 01 00 0c 	stw	r0,12(r1)
4804299c:	91 21 00 08 	stw	r9,8(r1)
480429a0:	c8 01 00 08 	lfd	f0,8(r1)
480429a4:	fc 00 60 28 	fsub	f0,f0,f12
480429a8:	fd 6b 00 28 	fsub	f11,f11,f0
480429ac:	80 04 00 04 	lwz	r0,4(r4)
480429b0:	90 01 00 0c 	stw	r0,12(r1)
480429b4:	91 21 00 08 	stw	r9,8(r1)
480429b8:	c9 a1 00 08 	lfd	f13,8(r1)
480429bc:	fd ad 60 28 	fsub	f13,f13,f12
480429c0:	80 03 00 04 	lwz	r0,4(r3)
480429c4:	90 01 00 0c 	stw	r0,12(r1)
480429c8:	91 21 00 08 	stw	r9,8(r1)
480429cc:	c8 01 00 08 	lfd	f0,8(r1)
480429d0:	fc 00 60 28 	fsub	f0,f0,f12
480429d4:	fd ad 00 28 	fsub	f13,f13,f0
480429d8:	3d 20 48 04 	lis	r9,18436
480429dc:	39 29 32 e8 	addi	r9,r9,13032
480429e0:	c8 09 00 00 	lfd	f0,0(r9)
480429e4:	fd 6b 68 3a 	fmadd	f11,f11,f0,f13
480429e8:	3d 60 48 04 	lis	r11,18436
480429ec:	39 6b 32 f0 	addi	r11,r11,13040
480429f0:	c8 2b 00 00 	lfd	f1,0(r11)
480429f4:	fc 2b 00 72 	fmul	f1,f11,f1
480429f8:	38 21 00 10 	addi	r1,r1,16
480429fc:	4e 80 00 20 	blr

48042a00 <cache_flush>:
48042a00:	39 20 00 00 	li	r9,0
48042a04:	39 29 00 08 	addi	r9,r9,8
48042a08:	2c 09 3f ff 	cmpwi	r9,16383
48042a0c:	40 81 ff f8 	ble	48042a04 <cache_flush+0x4>
48042a10:	4e 80 00 20 	blr

48042a14 <__do_global_ctors_aux>:
48042a14:	94 21 ff f0 	stwu	r1,-16(r1)
48042a18:	7c 08 02 a6 	mflr	r0
48042a1c:	93 c1 00 08 	stw	r30,8(r1)
48042a20:	93 e1 00 0c 	stw	r31,12(r1)
48042a24:	90 01 00 14 	stw	r0,20(r1)
48042a28:	48 00 19 91 	bl	480443b8 <__DTOR_END__+0xc>
48042a2c:	7f c8 02 a6 	mflr	r30
48042a30:	81 7e 00 0c 	lwz	r11,12(r30)
48042a34:	81 2b 00 00 	lwz	r9,0(r11)
48042a38:	80 09 00 00 	lwz	r0,0(r9)
48042a3c:	2c 00 ff ff 	cmpwi	r0,-1
48042a40:	41 82 00 30 	beq	48042a70 <__do_global_ctors_aux+0x5c>
48042a44:	7d 7f 5b 78 	mr	r31,r11
48042a48:	81 3f 00 00 	lwz	r9,0(r31)
48042a4c:	80 09 00 00 	lwz	r0,0(r9)
48042a50:	7c 08 03 a6 	mtlr	r0
48042a54:	4e 80 00 21 	blrl
48042a58:	81 7f 00 00 	lwz	r11,0(r31)
48042a5c:	38 0b ff fc 	addi	r0,r11,-4
48042a60:	90 1f 00 00 	stw	r0,0(r31)
48042a64:	81 2b ff fc 	lwz	r9,-4(r11)
48042a68:	2c 09 ff ff 	cmpwi	r9,-1
48042a6c:	40 82 ff dc 	bne	48042a48 <__do_global_ctors_aux+0x34>
48042a70:	80 01 00 14 	lwz	r0,20(r1)
48042a74:	7c 08 03 a6 	mtlr	r0
48042a78:	83 c1 00 08 	lwz	r30,8(r1)
48042a7c:	83 e1 00 0c 	lwz	r31,12(r1)
48042a80:	38 21 00 10 	addi	r1,r1,16
48042a84:	4e 80 00 20 	blr

48042a88 <init_dummy>:
48042a88:	94 21 ff f0 	stwu	r1,-16(r1)
48042a8c:	7c 08 02 a6 	mflr	r0
48042a90:	90 01 00 14 	stw	r0,20(r1)
48042a94:	80 01 00 14 	lwz	r0,20(r1)
48042a98:	7c 08 03 a6 	mtlr	r0
48042a9c:	38 21 00 10 	addi	r1,r1,16
48042aa0:	4e 80 00 20 	blr
	...
Disassembly of section .init:

48042ab4 <_init>:
48042ab4:	94 21 ff f0 	stwu	r1,-16(r1)
48042ab8:	7c 08 02 a6 	mflr	r0
48042abc:	90 01 00 14 	stw	r0,20(r1)
48042ac0:	4b ff ff 55 	bl	48042a14 <__do_global_ctors_aux>
48042ac4:	80 01 00 14 	lwz	r0,20(r1)
48042ac8:	7c 08 03 a6 	mtlr	r0
48042acc:	38 21 00 10 	addi	r1,r1,16
48042ad0:	4e 80 00 20 	blr
Disassembly of section .fini:

48042ad4 <_fini>:
48042ad4:	94 21 ff f0 	stwu	r1,-16(r1)
48042ad8:	7c 08 02 a6 	mflr	r0
48042adc:	90 01 00 14 	stw	r0,20(r1)
48042ae0:	4b ff da 59 	bl	48040538 <__do_global_dtors_aux>
48042ae4:	80 01 00 14 	lwz	r0,20(r1)
48042ae8:	7c 08 03 a6 	mtlr	r0
48042aec:	38 21 00 10 	addi	r1,r1,16
48042af0:	4e 80 00 20 	blr
